ARM GAS  C:\Users\ldu08\AppData\Local\Temp\cc4QOEDi.s 			page 1


   1              		.cpu cortex-m4
   2              		.arch armv7e-m
   3              		.fpu fpv4-sp-d16
   4              		.eabi_attribute 27, 1
   5              		.eabi_attribute 28, 1
   6              		.eabi_attribute 20, 1
   7              		.eabi_attribute 21, 1
   8              		.eabi_attribute 23, 3
   9              		.eabi_attribute 24, 1
  10              		.eabi_attribute 25, 1
  11              		.eabi_attribute 26, 1
  12              		.eabi_attribute 30, 1
  13              		.eabi_attribute 34, 1
  14              		.eabi_attribute 18, 4
  15              		.file	"main.c"
  16              		.text
  17              	.Ltext0:
  18              		.cfi_sections	.debug_frame
  19              		.section	.text.MX_GPIO_Init,"ax",%progbits
  20              		.align	1
  21              		.syntax unified
  22              		.thumb
  23              		.thumb_func
  25              	MX_GPIO_Init:
  26              	.LFB337:
  27              		.file 1 "Core/Src/main.c"
   1:Core/Src/main.c **** /* USER CODE BEGIN Header */
   2:Core/Src/main.c **** /**
   3:Core/Src/main.c ****   ******************************************************************************
   4:Core/Src/main.c ****   * @file           : main.c
   5:Core/Src/main.c ****   * @brief          : Main program body
   6:Core/Src/main.c ****   ******************************************************************************
   7:Core/Src/main.c ****   * @attention
   8:Core/Src/main.c ****   *
   9:Core/Src/main.c ****   * Copyright (c) 2023 STMicroelectronics.
  10:Core/Src/main.c ****   * All rights reserved.
  11:Core/Src/main.c ****   *
  12:Core/Src/main.c ****   * This software is licensed under terms that can be found in the LICENSE file
  13:Core/Src/main.c ****   * in the root directory of this software component.
  14:Core/Src/main.c ****   * If no LICENSE file comes with this software, it is provided AS-IS.
  15:Core/Src/main.c ****   *
  16:Core/Src/main.c ****   ******************************************************************************
  17:Core/Src/main.c ****   */
  18:Core/Src/main.c **** /* USER CODE END Header */
  19:Core/Src/main.c **** /* Includes ------------------------------------------------------------------*/
  20:Core/Src/main.c **** #include "main.h"
  21:Core/Src/main.c **** 
  22:Core/Src/main.c **** /* Private includes ----------------------------------------------------------*/
  23:Core/Src/main.c **** /* USER CODE BEGIN Includes */
  24:Core/Src/main.c **** /* USER CODE END Includes */
  25:Core/Src/main.c **** 
  26:Core/Src/main.c **** /* Private typedef -----------------------------------------------------------*/
  27:Core/Src/main.c **** /* USER CODE BEGIN PTD */
  28:Core/Src/main.c **** 
  29:Core/Src/main.c **** /* USER CODE END PTD */
  30:Core/Src/main.c **** 
  31:Core/Src/main.c **** /* Private define ------------------------------------------------------------*/
ARM GAS  C:\Users\ldu08\AppData\Local\Temp\cc4QOEDi.s 			page 2


  32:Core/Src/main.c **** /* USER CODE BEGIN PD */
  33:Core/Src/main.c **** #define NS 1000
  34:Core/Src/main.c **** #define FULL_BUF_SIZE 256
  35:Core/Src/main.c **** #define HALF_BUF_SIZE 128
  36:Core/Src/main.c **** /* USER CODE END PD */
  37:Core/Src/main.c **** 
  38:Core/Src/main.c **** /* Private macro -------------------------------------------------------------*/
  39:Core/Src/main.c **** /* USER CODE BEGIN PM */
  40:Core/Src/main.c **** 
  41:Core/Src/main.c **** /* USER CODE END PM */
  42:Core/Src/main.c **** 
  43:Core/Src/main.c **** /* Private variables ---------------------------------------------------------*/
  44:Core/Src/main.c **** ADC_HandleTypeDef hadc1;
  45:Core/Src/main.c **** DMA_HandleTypeDef hdma_adc1;
  46:Core/Src/main.c **** 
  47:Core/Src/main.c **** DAC_HandleTypeDef hdac1;
  48:Core/Src/main.c **** DMA_HandleTypeDef hdma_dac_ch1;
  49:Core/Src/main.c **** 
  50:Core/Src/main.c **** UART_HandleTypeDef hlpuart1;
  51:Core/Src/main.c **** 
  52:Core/Src/main.c **** TIM_HandleTypeDef htim6;
  53:Core/Src/main.c **** TIM_HandleTypeDef htim7;
  54:Core/Src/main.c **** 
  55:Core/Src/main.c **** PCD_HandleTypeDef hpcd_USB_OTG_FS;
  56:Core/Src/main.c **** 
  57:Core/Src/main.c **** /* USER CODE BEGIN PV */
  58:Core/Src/main.c **** volatile uint32_t adc_val[FULL_BUF_SIZE];
  59:Core/Src/main.c **** volatile uint32_t dac_val[FULL_BUF_SIZE];
  60:Core/Src/main.c **** 
  61:Core/Src/main.c **** uint32_t* in_buf_ptr;
  62:Core/Src/main.c **** uint32_t* out_buf_ptr;
  63:Core/Src/main.c **** uint32_t out_out_ptr = 0;
  64:Core/Src/main.c **** 
  65:Core/Src/main.c **** int flag = 0;
  66:Core/Src/main.c **** int counter = 0;
  67:Core/Src/main.c **** int counter_counter = 0;
  68:Core/Src/main.c **** 
  69:Core/Src/main.c **** 
  70:Core/Src/main.c **** float Wave_LUT[NS] = {
  71:Core/Src/main.c ****   
  72:Core/Src/main.c ****      0        ,  0.00628314,  0.01256604,  0.01884844,  0.0251301 ,
  73:Core/Src/main.c ****   0.03141076,  0.03769018,  0.04396812,  0.05024432,  0.05651853,
  74:Core/Src/main.c ****   0.06279052,  0.06906003,  0.07532681,  0.08159061,  0.0878512 ,
  75:Core/Src/main.c ****   0.09410831,  0.10036171,  0.10661115,  0.11285638,  0.11909716,
  76:Core/Src/main.c ****   0.12533323,  0.13156436,  0.13779029,  0.14401078,  0.15022559,
  77:Core/Src/main.c ****   0.15643447,  0.16263717,  0.16883344,  0.17502306,  0.18120576,
  78:Core/Src/main.c ****   0.18738131,  0.19354947,  0.19970998,  0.20586261,  0.21200711,
  79:Core/Src/main.c ****   0.21814324,  0.22427076,  0.23038943,  0.236499  ,  0.24259923,
  80:Core/Src/main.c ****   0.24868989,  0.25477073,  0.26084151,  0.26690199,  0.27295194,
  81:Core/Src/main.c ****   0.27899111,  0.28501926,  0.29103617,  0.29704158,  0.30303527,
  82:Core/Src/main.c ****   0.30901699,  0.31498652,  0.32094361,  0.32688803,  0.33281954,
  83:Core/Src/main.c ****   0.33873792,  0.34464292,  0.35053432,  0.35641188,  0.36227537,
  84:Core/Src/main.c ****   0.36812455,  0.37395921,  0.3797791 ,  0.38558399,  0.39137367,
  85:Core/Src/main.c ****   0.39714789,  0.40290644,  0.40864907,  0.41437558,  0.42008573,
  86:Core/Src/main.c ****   0.42577929,  0.43145605,  0.43711577,  0.44275823,  0.44838322,
  87:Core/Src/main.c ****   0.4539905 ,  0.45957986,  0.46515108,  0.47070393,  0.4762382 ,
  88:Core/Src/main.c ****   0.48175367,  0.48725013,  0.49272734,  0.49818511,  0.5036232 ,
ARM GAS  C:\Users\ldu08\AppData\Local\Temp\cc4QOEDi.s 			page 3


  89:Core/Src/main.c ****   0.50904142,  0.51443953,  0.51981734,  0.52517463,  0.53051118,
  90:Core/Src/main.c ****   0.53582679,  0.54112125,  0.54639435,  0.55164587,  0.55687562,
  91:Core/Src/main.c ****   0.56208338,  0.56726895,  0.57243213,  0.5775727 ,  0.58269048,
  92:Core/Src/main.c ****   0.58778525,  0.59285682,  0.59790498,  0.60292954,  0.6079303 ,
  93:Core/Src/main.c ****   0.61290705,  0.61785961,  0.62278778,  0.62769136,  0.63257016,
  94:Core/Src/main.c ****   0.63742399,  0.64225265,  0.64705596,  0.65183373,  0.65658576,
  95:Core/Src/main.c ****   0.66131187,  0.66601187,  0.67068558,  0.67533281,  0.67995338,
  96:Core/Src/main.c ****   0.68454711,  0.68911381,  0.69365331,  0.69816542,  0.70264997,
  97:Core/Src/main.c ****   0.70710678,  0.71153568,  0.71593648,  0.72030902,  0.72465313,
  98:Core/Src/main.c ****   0.72896863,  0.73325535,  0.73751312,  0.74174177,  0.74594115,
  99:Core/Src/main.c ****   0.75011107,  0.75425138,  0.75836192,  0.76244251,  0.76649301,
 100:Core/Src/main.c ****   0.77051324,  0.77450306,  0.7784623 ,  0.78239081,  0.78628843,
 101:Core/Src/main.c ****   0.79015501,  0.7939904 ,  0.79779444,  0.80156698,  0.80530789,
 102:Core/Src/main.c ****   0.80901699,  0.81269416,  0.81633925,  0.81995211,  0.8235326 ,
 103:Core/Src/main.c ****   0.82708057,  0.8305959 ,  0.83407843,  0.83752804,  0.84094458,
 104:Core/Src/main.c ****   0.84432793,  0.84767794,  0.85099448,  0.85427743,  0.85752666,
 105:Core/Src/main.c ****   0.86074203,  0.86392342,  0.8670707 ,  0.87018375,  0.87326245,
 106:Core/Src/main.c ****   0.87630668,  0.87931631,  0.88229123,  0.88523131,  0.88813645,
 107:Core/Src/main.c ****   0.89100652,  0.89384142,  0.89664104,  0.89940525,  0.90213396,
 108:Core/Src/main.c ****   0.90482705,  0.90748442,  0.91010597,  0.91269159,  0.91524117,
 109:Core/Src/main.c ****   0.91775463,  0.92023185,  0.92267274,  0.92507721,  0.92744515,
 110:Core/Src/main.c ****   0.92977649,  0.93207111,  0.93432894,  0.93654989,  0.93873386,
 111:Core/Src/main.c ****   0.94088077,  0.94299054,  0.94506308,  0.9470983 ,  0.94909614,
 112:Core/Src/main.c ****   0.95105652,  0.95297934,  0.95486454,  0.95671205,  0.95852179,
 113:Core/Src/main.c ****   0.96029369,  0.96202767,  0.96372368,  0.96538164,  0.96700149,
 114:Core/Src/main.c ****   0.96858316,  0.9701266 ,  0.97163173,  0.97309851,  0.97452687,
 115:Core/Src/main.c ****   0.97591676,  0.97726812,  0.9785809 ,  0.97985505,  0.98109052,
 116:Core/Src/main.c ****   0.98228725,  0.9834452 ,  0.98456433,  0.9856446 ,  0.98668594,
 117:Core/Src/main.c ****   0.98768834,  0.98865174,  0.98957612,  0.99046143,  0.99130763,
 118:Core/Src/main.c ****   0.9921147 ,  0.9928826 ,  0.99361131,  0.99430079,  0.99495102,
 119:Core/Src/main.c ****   0.99556196,  0.99613361,  0.99666593,  0.9971589 ,  0.99761251,
 120:Core/Src/main.c ****   0.99802673,  0.99840155,  0.99873696,  0.99903293,  0.99928947,
 121:Core/Src/main.c ****   0.99950656,  0.99968419,  0.99982235,  0.99992104,  0.99998026,
 122:Core/Src/main.c ****   1        ,  0.99998026,  0.99992104,  0.99982235,  0.99968419,
 123:Core/Src/main.c ****   0.99950656,  0.99928947,  0.99903293,  0.99873696,  0.99840155,
 124:Core/Src/main.c ****   0.99802673,  0.99761251,  0.9971589 ,  0.99666593,  0.99613361,
 125:Core/Src/main.c ****   0.99556196,  0.99495102,  0.99430079,  0.99361131,  0.9928826 ,
 126:Core/Src/main.c ****   0.9921147 ,  0.99130763,  0.99046143,  0.98957612,  0.98865174,
 127:Core/Src/main.c ****   0.98768834,  0.98668594,  0.9856446 ,  0.98456433,  0.9834452 ,
 128:Core/Src/main.c ****   0.98228725,  0.98109052,  0.97985505,  0.9785809 ,  0.97726812,
 129:Core/Src/main.c ****   0.97591676,  0.97452687,  0.97309851,  0.97163173,  0.9701266 ,
 130:Core/Src/main.c ****   0.96858316,  0.96700149,  0.96538164,  0.96372368,  0.96202767,
 131:Core/Src/main.c ****   0.96029369,  0.95852179,  0.95671205,  0.95486454,  0.95297934,
 132:Core/Src/main.c ****   0.95105652,  0.94909614,  0.9470983 ,  0.94506308,  0.94299054,
 133:Core/Src/main.c ****   0.94088077,  0.93873386,  0.93654989,  0.93432894,  0.93207111,
 134:Core/Src/main.c ****   0.92977649,  0.92744515,  0.92507721,  0.92267274,  0.92023185,
 135:Core/Src/main.c ****   0.91775463,  0.91524117,  0.91269159,  0.91010597,  0.90748442,
 136:Core/Src/main.c ****   0.90482705,  0.90213396,  0.89940525,  0.89664104,  0.89384142,
 137:Core/Src/main.c ****   0.89100652,  0.88813645,  0.88523131,  0.88229123,  0.87931631,
 138:Core/Src/main.c ****   0.87630668,  0.87326245,  0.87018375,  0.8670707 ,  0.86392342,
 139:Core/Src/main.c ****   0.86074203,  0.85752666,  0.85427743,  0.85099448,  0.84767794,
 140:Core/Src/main.c ****   0.84432793,  0.84094458,  0.83752804,  0.83407843,  0.8305959 ,
 141:Core/Src/main.c ****   0.82708057,  0.8235326 ,  0.81995211,  0.81633925,  0.81269416,
 142:Core/Src/main.c ****   0.80901699,  0.80530789,  0.80156698,  0.79779444,  0.7939904 ,
 143:Core/Src/main.c ****   0.79015501,  0.78628843,  0.78239081,  0.7784623 ,  0.77450306,
 144:Core/Src/main.c ****   0.77051324,  0.76649301,  0.76244251,  0.75836192,  0.75425138,
 145:Core/Src/main.c ****   0.75011107,  0.74594115,  0.74174177,  0.73751312,  0.73325535,
ARM GAS  C:\Users\ldu08\AppData\Local\Temp\cc4QOEDi.s 			page 4


 146:Core/Src/main.c ****   0.72896863,  0.72465313,  0.72030902,  0.71593648,  0.71153568,
 147:Core/Src/main.c ****   0.70710678,  0.70264997,  0.69816542,  0.69365331,  0.68911381,
 148:Core/Src/main.c ****   0.68454711,  0.67995338,  0.67533281,  0.67068558,  0.66601187,
 149:Core/Src/main.c ****   0.66131187,  0.65658576,  0.65183373,  0.64705596,  0.64225265,
 150:Core/Src/main.c ****   0.63742399,  0.63257016,  0.62769136,  0.62278778,  0.61785961,
 151:Core/Src/main.c ****   0.61290705,  0.6079303 ,  0.60292954,  0.59790498,  0.59285682,
 152:Core/Src/main.c ****   0.58778525,  0.58269048,  0.5775727 ,  0.57243213,  0.56726895,
 153:Core/Src/main.c ****   0.56208338,  0.55687562,  0.55164587,  0.54639435,  0.54112125,
 154:Core/Src/main.c ****   0.53582679,  0.53051118,  0.52517463,  0.51981734,  0.51443953,
 155:Core/Src/main.c ****   0.50904142,  0.5036232 ,  0.49818511,  0.49272734,  0.48725013,
 156:Core/Src/main.c ****   0.48175367,  0.4762382 ,  0.47070393,  0.46515108,  0.45957986,
 157:Core/Src/main.c ****   0.4539905 ,  0.44838322,  0.44275823,  0.43711577,  0.43145605,
 158:Core/Src/main.c ****   0.42577929,  0.42008573,  0.41437558,  0.40864907,  0.40290644,
 159:Core/Src/main.c ****   0.39714789,  0.39137367,  0.38558399,  0.3797791 ,  0.37395921,
 160:Core/Src/main.c ****   0.36812455,  0.36227537,  0.35641188,  0.35053432,  0.34464292,
 161:Core/Src/main.c ****   0.33873792,  0.33281954,  0.32688803,  0.32094361,  0.31498652,
 162:Core/Src/main.c ****   0.30901699,  0.30303527,  0.29704158,  0.29103617,  0.28501926,
 163:Core/Src/main.c ****   0.27899111,  0.27295194,  0.26690199,  0.26084151,  0.25477073,
 164:Core/Src/main.c ****   0.24868989,  0.24259923,  0.236499  ,  0.23038943,  0.22427076,
 165:Core/Src/main.c ****   0.21814324,  0.21200711,  0.20586261,  0.19970998,  0.19354947,
 166:Core/Src/main.c ****   0.18738131,  0.18120576,  0.17502306,  0.16883344,  0.16263717,
 167:Core/Src/main.c ****   0.15643447,  0.15022559,  0.14401078,  0.13779029,  0.13156436,
 168:Core/Src/main.c ****   0.12533323,  0.11909716,  0.11285638,  0.10661115,  0.10036171,
 169:Core/Src/main.c ****   0.09410831,  0.0878512 ,  0.08159061,  0.07532681,  0.06906003,
 170:Core/Src/main.c ****   0.06279052,  0.05651853,  0.05024432,  0.04396812,  0.03769018,
 171:Core/Src/main.c ****   0.03141076,  0.0251301 ,  0.01884844,  0.01256604,  0.00628314,
 172:Core/Src/main.c ****   0        , -0.00628314, -0.01256604, -0.01884844, -0.0251301 ,
 173:Core/Src/main.c ****  -0.03141076, -0.03769018, -0.04396812, -0.05024432, -0.05651853,
 174:Core/Src/main.c ****  -0.06279052, -0.06906003, -0.07532681, -0.08159061, -0.0878512 ,
 175:Core/Src/main.c ****  -0.09410831, -0.10036171, -0.10661115, -0.11285638, -0.11909716,
 176:Core/Src/main.c ****  -0.12533323, -0.13156436, -0.13779029, -0.14401078, -0.15022559,
 177:Core/Src/main.c ****  -0.15643447, -0.16263717, -0.16883344, -0.17502306, -0.18120576,
 178:Core/Src/main.c ****  -0.18738131, -0.19354947, -0.19970998, -0.20586261, -0.21200711,
 179:Core/Src/main.c ****  -0.21814324, -0.22427076, -0.23038943, -0.236499  , -0.24259923,
 180:Core/Src/main.c ****  -0.24868989, -0.25477073, -0.26084151, -0.26690199, -0.27295194,
 181:Core/Src/main.c ****  -0.27899111, -0.28501926, -0.29103617, -0.29704158, -0.30303527,
 182:Core/Src/main.c ****  -0.30901699, -0.31498652, -0.32094361, -0.32688803, -0.33281954,
 183:Core/Src/main.c ****  -0.33873792, -0.34464292, -0.35053432, -0.35641188, -0.36227537,
 184:Core/Src/main.c ****  -0.36812455, -0.37395921, -0.3797791 , -0.38558399, -0.39137367,
 185:Core/Src/main.c ****  -0.39714789, -0.40290644, -0.40864907, -0.41437558, -0.42008573,
 186:Core/Src/main.c ****  -0.42577929, -0.43145605, -0.43711577, -0.44275823, -0.44838322,
 187:Core/Src/main.c ****  -0.4539905 , -0.45957986, -0.46515108, -0.47070393, -0.4762382 ,
 188:Core/Src/main.c ****  -0.48175367, -0.48725013, -0.49272734, -0.49818511, -0.5036232 ,
 189:Core/Src/main.c ****  -0.50904142, -0.51443953, -0.51981734, -0.52517463, -0.53051118,
 190:Core/Src/main.c ****  -0.53582679, -0.54112125, -0.54639435, -0.55164587, -0.55687562,
 191:Core/Src/main.c ****  -0.56208338, -0.56726895, -0.57243213, -0.5775727 , -0.58269048,
 192:Core/Src/main.c ****  -0.58778525, -0.59285682, -0.59790498, -0.60292954, -0.6079303 ,
 193:Core/Src/main.c ****  -0.61290705, -0.61785961, -0.62278778, -0.62769136, -0.63257016,
 194:Core/Src/main.c ****  -0.63742399, -0.64225265, -0.64705596, -0.65183373, -0.65658576,
 195:Core/Src/main.c ****  -0.66131187, -0.66601187, -0.67068558, -0.67533281, -0.67995338,
 196:Core/Src/main.c ****  -0.68454711, -0.68911381, -0.69365331, -0.69816542, -0.70264997,
 197:Core/Src/main.c ****  -0.70710678, -0.71153568, -0.71593648, -0.72030902, -0.72465313,
 198:Core/Src/main.c ****  -0.72896863, -0.73325535, -0.73751312, -0.74174177, -0.74594115,
 199:Core/Src/main.c ****  -0.75011107, -0.75425138, -0.75836192, -0.76244251, -0.76649301,
 200:Core/Src/main.c ****  -0.77051324, -0.77450306, -0.7784623 , -0.78239081, -0.78628843,
 201:Core/Src/main.c ****  -0.79015501, -0.7939904 , -0.79779444, -0.80156698, -0.80530789,
 202:Core/Src/main.c ****  -0.80901699, -0.81269416, -0.81633925, -0.81995211, -0.8235326 ,
ARM GAS  C:\Users\ldu08\AppData\Local\Temp\cc4QOEDi.s 			page 5


 203:Core/Src/main.c ****  -0.82708057, -0.8305959 , -0.83407843, -0.83752804, -0.84094458,
 204:Core/Src/main.c ****  -0.84432793, -0.84767794, -0.85099448, -0.85427743, -0.85752666,
 205:Core/Src/main.c ****  -0.86074203, -0.86392342, -0.8670707 , -0.87018375, -0.87326245,
 206:Core/Src/main.c ****  -0.87630668, -0.87931631, -0.88229123, -0.88523131, -0.88813645,
 207:Core/Src/main.c ****  -0.89100652, -0.89384142, -0.89664104, -0.89940525, -0.90213396,
 208:Core/Src/main.c ****  -0.90482705, -0.90748442, -0.91010597, -0.91269159, -0.91524117,
 209:Core/Src/main.c ****  -0.91775463, -0.92023185, -0.92267274, -0.92507721, -0.92744515,
 210:Core/Src/main.c ****  -0.92977649, -0.93207111, -0.93432894, -0.93654989, -0.93873386,
 211:Core/Src/main.c ****  -0.94088077, -0.94299054, -0.94506308, -0.9470983 , -0.94909614,
 212:Core/Src/main.c ****  -0.95105652, -0.95297934, -0.95486454, -0.95671205, -0.95852179,
 213:Core/Src/main.c ****  -0.96029369, -0.96202767, -0.96372368, -0.96538164, -0.96700149,
 214:Core/Src/main.c ****  -0.96858316, -0.9701266 , -0.97163173, -0.97309851, -0.97452687,
 215:Core/Src/main.c ****  -0.97591676, -0.97726812, -0.9785809 , -0.97985505, -0.98109052,
 216:Core/Src/main.c ****  -0.98228725, -0.9834452 , -0.98456433, -0.9856446 , -0.98668594,
 217:Core/Src/main.c ****  -0.98768834, -0.98865174, -0.98957612, -0.99046143, -0.99130763,
 218:Core/Src/main.c ****  -0.9921147 , -0.9928826 , -0.99361131, -0.99430079, -0.99495102,
 219:Core/Src/main.c ****  -0.99556196, -0.99613361, -0.99666593, -0.9971589 , -0.99761251,
 220:Core/Src/main.c ****  -0.99802673, -0.99840155, -0.99873696, -0.99903293, -0.99928947,
 221:Core/Src/main.c ****  -0.99950656, -0.99968419, -0.99982235, -0.99992104, -0.99998026,
 222:Core/Src/main.c ****  -1        , -0.99998026, -0.99992104, -0.99982235, -0.99968419,
 223:Core/Src/main.c ****  -0.99950656, -0.99928947, -0.99903293, -0.99873696, -0.99840155,
 224:Core/Src/main.c ****  -0.99802673, -0.99761251, -0.9971589 , -0.99666593, -0.99613361,
 225:Core/Src/main.c ****  -0.99556196, -0.99495102, -0.99430079, -0.99361131, -0.9928826 ,
 226:Core/Src/main.c ****  -0.9921147 , -0.99130763, -0.99046143, -0.98957612, -0.98865174,
 227:Core/Src/main.c ****  -0.98768834, -0.98668594, -0.9856446 , -0.98456433, -0.9834452 ,
 228:Core/Src/main.c ****  -0.98228725, -0.98109052, -0.97985505, -0.9785809 , -0.97726812,
 229:Core/Src/main.c ****  -0.97591676, -0.97452687, -0.97309851, -0.97163173, -0.9701266 ,
 230:Core/Src/main.c ****  -0.96858316, -0.96700149, -0.96538164, -0.96372368, -0.96202767,
 231:Core/Src/main.c ****  -0.96029369, -0.95852179, -0.95671205, -0.95486454, -0.95297934,
 232:Core/Src/main.c ****  -0.95105652, -0.94909614, -0.9470983 , -0.94506308, -0.94299054,
 233:Core/Src/main.c ****  -0.94088077, -0.93873386, -0.93654989, -0.93432894, -0.93207111,
 234:Core/Src/main.c ****  -0.92977649, -0.92744515, -0.92507721, -0.92267274, -0.92023185,
 235:Core/Src/main.c ****  -0.91775463, -0.91524117, -0.91269159, -0.91010597, -0.90748442,
 236:Core/Src/main.c ****  -0.90482705, -0.90213396, -0.89940525, -0.89664104, -0.89384142,
 237:Core/Src/main.c ****  -0.89100652, -0.88813645, -0.88523131, -0.88229123, -0.87931631,
 238:Core/Src/main.c ****  -0.87630668, -0.87326245, -0.87018375, -0.8670707 , -0.86392342,
 239:Core/Src/main.c ****  -0.86074203, -0.85752666, -0.85427743, -0.85099448, -0.84767794,
 240:Core/Src/main.c ****  -0.84432793, -0.84094458, -0.83752804, -0.83407843, -0.8305959 ,
 241:Core/Src/main.c ****  -0.82708057, -0.8235326 , -0.81995211, -0.81633925, -0.81269416,
 242:Core/Src/main.c ****  -0.80901699, -0.80530789, -0.80156698, -0.79779444, -0.7939904 ,
 243:Core/Src/main.c ****  -0.79015501, -0.78628843, -0.78239081, -0.7784623 , -0.77450306,
 244:Core/Src/main.c ****  -0.77051324, -0.76649301, -0.76244251, -0.75836192, -0.75425138,
 245:Core/Src/main.c ****  -0.75011107, -0.74594115, -0.74174177, -0.73751312, -0.73325535,
 246:Core/Src/main.c ****  -0.72896863, -0.72465313, -0.72030902, -0.71593648, -0.71153568,
 247:Core/Src/main.c ****  -0.70710678, -0.70264997, -0.69816542, -0.69365331, -0.68911381,
 248:Core/Src/main.c ****  -0.68454711, -0.67995338, -0.67533281, -0.67068558, -0.66601187,
 249:Core/Src/main.c ****  -0.66131187, -0.65658576, -0.65183373, -0.64705596, -0.64225265,
 250:Core/Src/main.c ****  -0.63742399, -0.63257016, -0.62769136, -0.62278778, -0.61785961,
 251:Core/Src/main.c ****  -0.61290705, -0.6079303 , -0.60292954, -0.59790498, -0.59285682,
 252:Core/Src/main.c ****  -0.58778525, -0.58269048, -0.5775727 , -0.57243213, -0.56726895,
 253:Core/Src/main.c ****  -0.56208338, -0.55687562, -0.55164587, -0.54639435, -0.54112125,
 254:Core/Src/main.c ****  -0.53582679, -0.53051118, -0.52517463, -0.51981734, -0.51443953,
 255:Core/Src/main.c ****  -0.50904142, -0.5036232 , -0.49818511, -0.49272734, -0.48725013,
 256:Core/Src/main.c ****  -0.48175367, -0.4762382 , -0.47070393, -0.46515108, -0.45957986,
 257:Core/Src/main.c ****  -0.4539905 , -0.44838322, -0.44275823, -0.43711577, -0.43145605,
 258:Core/Src/main.c ****  -0.42577929, -0.42008573, -0.41437558, -0.40864907, -0.40290644,
 259:Core/Src/main.c ****  -0.39714789, -0.39137367, -0.38558399, -0.3797791 , -0.37395921,
ARM GAS  C:\Users\ldu08\AppData\Local\Temp\cc4QOEDi.s 			page 6


 260:Core/Src/main.c ****  -0.36812455, -0.36227537, -0.35641188, -0.35053432, -0.34464292,
 261:Core/Src/main.c ****  -0.33873792, -0.33281954, -0.32688803, -0.32094361, -0.31498652,
 262:Core/Src/main.c ****  -0.30901699, -0.30303527, -0.29704158, -0.29103617, -0.28501926,
 263:Core/Src/main.c ****  -0.27899111, -0.27295194, -0.26690199, -0.26084151, -0.25477073,
 264:Core/Src/main.c ****  -0.24868989, -0.24259923, -0.236499  , -0.23038943, -0.22427076,
 265:Core/Src/main.c ****  -0.21814324, -0.21200711, -0.20586261, -0.19970998, -0.19354947,
 266:Core/Src/main.c ****  -0.18738131, -0.18120576, -0.17502306, -0.16883344, -0.16263717,
 267:Core/Src/main.c ****  -0.15643447, -0.15022559, -0.14401078, -0.13779029, -0.13156436,
 268:Core/Src/main.c ****  -0.12533323, -0.11909716, -0.11285638, -0.10661115, -0.10036171,
 269:Core/Src/main.c ****  -0.09410831, -0.0878512 , -0.08159061, -0.07532681, -0.06906003,
 270:Core/Src/main.c ****  -0.06279052, -0.05651853, -0.05024432, -0.04396812, -0.03769018,
 271:Core/Src/main.c ****  -0.03141076, -0.0251301 , -0.01884844, -0.01256604, -0.00628314  
 272:Core/Src/main.c ****        };
 273:Core/Src/main.c **** 
 274:Core/Src/main.c **** /*
 275:Core/Src/main.c **** 
 276:Core/Src/main.c **** FIR filter designed with
 277:Core/Src/main.c **** http://t-filter.appspot.com
 278:Core/Src/main.c **** 
 279:Core/Src/main.c **** sampling frequency: 200000 Hz
 280:Core/Src/main.c **** 
 281:Core/Src/main.c **** * 0 Hz - 16000 Hz
 282:Core/Src/main.c ****   gain = 1
 283:Core/Src/main.c ****   desired ripple = 5 dB
 284:Core/Src/main.c ****   actual ripple = 0 dB
 285:Core/Src/main.c **** 
 286:Core/Src/main.c **** */
 287:Core/Src/main.c **** 
 288:Core/Src/main.c **** #define FILTER_TAP_NUM 5
 289:Core/Src/main.c **** 
 290:Core/Src/main.c **** static double filter_taps[FILTER_TAP_NUM] = {
 291:Core/Src/main.c ****   // -4.4408920985006264e-17,
 292:Core/Src/main.c ****   // 4.4408920985006264e-17,
 293:Core/Src/main.c ****   1,0,0,0,0
 294:Core/Src/main.c ****   // 4.4408920985006264e-17,
 295:Core/Src/main.c ****   // -4.4408920985006264e-17
 296:Core/Src/main.c **** };
 297:Core/Src/main.c **** 
 298:Core/Src/main.c **** /* USER CODE END PV */
 299:Core/Src/main.c **** 
 300:Core/Src/main.c **** /* Private function prototypes -----------------------------------------------*/
 301:Core/Src/main.c **** void SystemClock_Config(void);
 302:Core/Src/main.c **** void PeriphCommonClock_Config(void);
 303:Core/Src/main.c **** static void MX_GPIO_Init(void);
 304:Core/Src/main.c **** static void MX_DMA_Init(void);
 305:Core/Src/main.c **** static void MX_DAC1_Init(void);
 306:Core/Src/main.c **** static void MX_LPUART1_UART_Init(void);
 307:Core/Src/main.c **** static void MX_USB_OTG_FS_PCD_Init(void);
 308:Core/Src/main.c **** static void MX_ADC1_Init(void);
 309:Core/Src/main.c **** static void MX_TIM6_Init(void);
 310:Core/Src/main.c **** static void MX_TIM7_Init(void);
 311:Core/Src/main.c **** /* USER CODE BEGIN PFP */
 312:Core/Src/main.c **** 
 313:Core/Src/main.c **** /* USER CODE END PFP */
 314:Core/Src/main.c **** 
 315:Core/Src/main.c **** /* Private user code ---------------------------------------------------------*/
 316:Core/Src/main.c **** /* USER CODE BEGIN 0 */
ARM GAS  C:\Users\ldu08\AppData\Local\Temp\cc4QOEDi.s 			page 7


 317:Core/Src/main.c **** 
 318:Core/Src/main.c **** uint32_t fir(int);
 319:Core/Src/main.c **** 
 320:Core/Src/main.c **** int numbytes = 0;
 321:Core/Src/main.c **** 
 322:Core/Src/main.c **** void HAL_ADC_ConvHalfCpltCallback(ADC_HandleTypeDef* hadc) {
 323:Core/Src/main.c ****   //first half of adc buffer is full
 324:Core/Src/main.c ****   in_buf_ptr = &adc_val[0];
 325:Core/Src/main.c ****   out_buf_ptr = &dac_val[HALF_BUF_SIZE];// + HALF_BUF_SIZE;
 326:Core/Src/main.c **** 
 327:Core/Src/main.c ****   //numbytes++;
 328:Core/Src/main.c ****   //if (numbytes > HALF_BUF_SIZE - 1) numbytes=0;
 329:Core/Src/main.c ****   
 330:Core/Src/main.c **** 
 331:Core/Src/main.c ****   //uint32_t test = fir((int)in_buf_ptr[numbytes]);
 332:Core/Src/main.c ****   //out_buf_ptr[numbytes] = test;
 333:Core/Src/main.c **** 
 334:Core/Src/main.c ****   flag=1;
 335:Core/Src/main.c **** }
 336:Core/Src/main.c **** 
 337:Core/Src/main.c **** void HAL_ADC_ConvCpltCallback(ADC_HandleTypeDef* hadc) {
 338:Core/Src/main.c ****   //second half of adc buffer is full
 339:Core/Src/main.c ****   in_buf_ptr = &adc_val[HALF_BUF_SIZE];// + HALF_BUF_SIZE;
 340:Core/Src/main.c ****   out_buf_ptr = &dac_val[0];
 341:Core/Src/main.c ****   
 342:Core/Src/main.c ****   //numbytes = FULL_BUF_SIZE - __HAL_DMA_GET_COUNTER(hadc1.hdmarx);
 343:Core/Src/main.c ****   //numbytes++;
 344:Core/Src/main.c ****   //if (numbytes > HALF_BUF_SIZE - 1) numbytes=0;
 345:Core/Src/main.c **** 
 346:Core/Src/main.c ****   //uint32_t test = fir((int)in_buf_ptr[numbytes]);
 347:Core/Src/main.c ****   //out_buf_ptr[numbytes] = test;
 348:Core/Src/main.c **** 
 349:Core/Src/main.c ****   flag=1;
 350:Core/Src/main.c **** }
 351:Core/Src/main.c **** 
 352:Core/Src/main.c **** void HAL_TIM_PeriodElapsedCallback(TIM_HandleTypeDef *htim) {
 353:Core/Src/main.c ****   if (htim == &htim7) {
 354:Core/Src/main.c ****     //alpha+=0.05;
 355:Core/Src/main.c ****     //if (alpha > 1) alpha = 0;
 356:Core/Src/main.c ****   }
 357:Core/Src/main.c **** 
 358:Core/Src/main.c ****   if (htim == &htim6) {
 359:Core/Src/main.c ****     //out_out_ptr++;
 360:Core/Src/main.c ****     //if (out_out_ptr > HALF_BUF_SIZE-1) out_out_ptr = 0;
 361:Core/Src/main.c ****     // process_data();
 362:Core/Src/main.c ****   }
 363:Core/Src/main.c **** }
 364:Core/Src/main.c **** 
 365:Core/Src/main.c **** float ema_alpha = 0.1f;
 366:Core/Src/main.c **** float ema_out = 0;
 367:Core/Src/main.c **** void ema_lpf(float in) {
 368:Core/Src/main.c ****   ema_out = ema_alpha * in + (1.0f - ema_alpha) * ema_out;
 369:Core/Src/main.c **** }
 370:Core/Src/main.c **** 
 371:Core/Src/main.c **** float firdata[FILTER_TAP_NUM];
 372:Core/Src/main.c **** int firptr[FILTER_TAP_NUM];
 373:Core/Src/main.c **** int fir_w_ptr = 0;
ARM GAS  C:\Users\ldu08\AppData\Local\Temp\cc4QOEDi.s 			page 8


 374:Core/Src/main.c **** 
 375:Core/Src/main.c **** uint32_t fir(int in) {
 376:Core/Src/main.c ****   float in_f = (float)in;
 377:Core/Src/main.c ****   float fir_out = 0;
 378:Core/Src/main.c ****   for (int i=0;i<FILTER_TAP_NUM;i++) {
 379:Core/Src/main.c ****     fir_out += filter_taps[firptr[i]] * firdata[i];
 380:Core/Src/main.c ****     firptr[i]++;
 381:Core/Src/main.c ****   }
 382:Core/Src/main.c ****   firdata[fir_w_ptr] = in_f;
 383:Core/Src/main.c ****   firptr[fir_w_ptr] = 0;
 384:Core/Src/main.c ****   fir_w_ptr++;
 385:Core/Src/main.c ****   if (fir_w_ptr == FILTER_TAP_NUM) fir_w_ptr = 0;
 386:Core/Src/main.c **** 
 387:Core/Src/main.c ****   return (uint32_t) fir_out;
 388:Core/Src/main.c **** }
 389:Core/Src/main.c **** 
 390:Core/Src/main.c **** void process_data() {
 391:Core/Src/main.c ****   for (int i=0;i<HALF_BUF_SIZE;i++) {
 392:Core/Src/main.c ****     //out_buf_ptr[i] = in_buf_ptr[i];
 393:Core/Src/main.c **** 
 394:Core/Src/main.c ****     float in = ((float) in_buf_ptr[i]);
 395:Core/Src/main.c ****     ema_lpf(in);
 396:Core/Src/main.c ****     out_buf_ptr[i] = (uint32_t)(ema_out);
 397:Core/Src/main.c **** 
 398:Core/Src/main.c ****     //if (bufIndex > 0) bufIndex--;
 399:Core/Src/main.c ****     //else bufIndex = HALF_BUF_SIZE - 1;
 400:Core/Src/main.c ****     //bufIndex = 0;
 401:Core/Src/main.c **** 
 402:Core/Src/main.c ****     //fir_out += filter_taps[i] * (float)(in_buf_ptr[bufIndex]);
 403:Core/Src/main.c **** 
 404:Core/Src/main.c ****     //float temp = ((float)(in_buf_ptr[i] * 1.0/2048.0) - 1.0);
 405:Core/Src/main.c ****     //out_buf_ptr[i]=(uint32_t)(temp * 2047+2048);
 406:Core/Src/main.c ****     //out_buf_ptr[i]=((float)(in_buf_ptr[i] * 1.0/2048.0 - 1) * (Wave_LUT[counter]))*2047 + 2048;
 407:Core/Src/main.c ****     //out_buf_ptr[i] = Wave_LUT[counter]*2047 + 2048;
 408:Core/Src/main.c ****     //counter_counter++;
 409:Core/Src/main.c ****     //if (counter_counter == 1) {
 410:Core/Src/main.c ****       //counter++;
 411:Core/Src/main.c ****       //counter_counter = 0;
 412:Core/Src/main.c ****     //}
 413:Core/Src/main.c ****   }
 414:Core/Src/main.c ****   //out_buf_ptr[out_out_ptr] = (fir_out / 3000000000 * 4096);
 415:Core/Src/main.c **** }
 416:Core/Src/main.c **** 
 417:Core/Src/main.c **** /* USER CODE END 0 */
 418:Core/Src/main.c **** 
 419:Core/Src/main.c **** /**
 420:Core/Src/main.c ****   * @brief  The application entry point.
 421:Core/Src/main.c ****   * @retval int
 422:Core/Src/main.c ****   */
 423:Core/Src/main.c **** int main(void)
 424:Core/Src/main.c **** {
 425:Core/Src/main.c ****   /* USER CODE BEGIN 1 */
 426:Core/Src/main.c **** 
 427:Core/Src/main.c ****   /* USER CODE END 1 */
 428:Core/Src/main.c **** 
 429:Core/Src/main.c ****   /* MCU Configuration--------------------------------------------------------*/
 430:Core/Src/main.c **** 
ARM GAS  C:\Users\ldu08\AppData\Local\Temp\cc4QOEDi.s 			page 9


 431:Core/Src/main.c ****   /* Reset of all peripherals, Initializes the Flash interface and the Systick. */
 432:Core/Src/main.c ****   HAL_Init();
 433:Core/Src/main.c **** 
 434:Core/Src/main.c ****   /* USER CODE BEGIN Init */
 435:Core/Src/main.c **** 
 436:Core/Src/main.c ****   /* USER CODE END Init */
 437:Core/Src/main.c **** 
 438:Core/Src/main.c ****   /* Configure the system clock */
 439:Core/Src/main.c ****   SystemClock_Config();
 440:Core/Src/main.c **** 
 441:Core/Src/main.c **** /* Configure the peripherals common clocks */
 442:Core/Src/main.c ****   PeriphCommonClock_Config();
 443:Core/Src/main.c **** 
 444:Core/Src/main.c ****   /* USER CODE BEGIN SysInit */
 445:Core/Src/main.c **** 
 446:Core/Src/main.c ****   /* USER CODE END SysInit */
 447:Core/Src/main.c **** 
 448:Core/Src/main.c ****   /* Initialize all configured peripherals */
 449:Core/Src/main.c ****   MX_GPIO_Init();
 450:Core/Src/main.c ****   MX_DMA_Init();
 451:Core/Src/main.c ****   MX_DAC1_Init();
 452:Core/Src/main.c ****   MX_LPUART1_UART_Init();
 453:Core/Src/main.c ****   MX_USB_OTG_FS_PCD_Init();
 454:Core/Src/main.c ****   MX_ADC1_Init();
 455:Core/Src/main.c ****   MX_TIM6_Init();
 456:Core/Src/main.c ****   MX_TIM7_Init();
 457:Core/Src/main.c ****   /* USER CODE BEGIN 2 */
 458:Core/Src/main.c ****   HAL_TIM_Base_Start_IT(&htim6);
 459:Core/Src/main.c ****   HAL_TIM_Base_Start_IT(&htim7);
 460:Core/Src/main.c ****   HAL_ADC_Start_DMA(&hadc1, (uint32_t*) adc_val, FULL_BUF_SIZE);
 461:Core/Src/main.c ****   HAL_DAC_Start_DMA(&hdac1, DAC_CHANNEL_1, (uint32_t*) dac_val, FULL_BUF_SIZE, DAC_ALIGN_12B_R);
 462:Core/Src/main.c **** 
 463:Core/Src/main.c ****   //arm_conv_f32(a, 5, b, 5, c);
 464:Core/Src/main.c ****   /* USER CODE END 2 */
 465:Core/Src/main.c **** 
 466:Core/Src/main.c ****   /* Infinite loop */
 467:Core/Src/main.c ****   /* USER CODE BEGIN WHILE */
 468:Core/Src/main.c ****     while (1)
 469:Core/Src/main.c ****     {
 470:Core/Src/main.c ****       if (flag) {
 471:Core/Src/main.c ****         HAL_GPIO_TogglePin(GPIOC, GPIO_PIN_8);
 472:Core/Src/main.c ****         flag = 0;
 473:Core/Src/main.c ****         process_data();
 474:Core/Src/main.c ****       }
 475:Core/Src/main.c ****     //HAL_GPIO_TogglePin(GPIOB, GPIO_PIN_7);
 476:Core/Src/main.c ****     //HAL_Delay(1000);
 477:Core/Src/main.c ****     /* USER CODE END WHILE */
 478:Core/Src/main.c **** 
 479:Core/Src/main.c ****     /* USER CODE BEGIN 3 */
 480:Core/Src/main.c ****   }
 481:Core/Src/main.c ****   /* USER CODE END 3 */
 482:Core/Src/main.c **** }
 483:Core/Src/main.c **** 
 484:Core/Src/main.c **** /**
 485:Core/Src/main.c ****   * @brief System Clock Configuration
 486:Core/Src/main.c ****   * @retval None
 487:Core/Src/main.c ****   */
ARM GAS  C:\Users\ldu08\AppData\Local\Temp\cc4QOEDi.s 			page 10


 488:Core/Src/main.c **** void SystemClock_Config(void)
 489:Core/Src/main.c **** {
 490:Core/Src/main.c ****   RCC_OscInitTypeDef RCC_OscInitStruct = {0};
 491:Core/Src/main.c ****   RCC_ClkInitTypeDef RCC_ClkInitStruct = {0};
 492:Core/Src/main.c **** 
 493:Core/Src/main.c ****   /** Configure the main internal regulator output voltage
 494:Core/Src/main.c ****   */
 495:Core/Src/main.c ****   if (HAL_PWREx_ControlVoltageScaling(PWR_REGULATOR_VOLTAGE_SCALE1) != HAL_OK)
 496:Core/Src/main.c ****   {
 497:Core/Src/main.c ****     Error_Handler();
 498:Core/Src/main.c ****   }
 499:Core/Src/main.c **** 
 500:Core/Src/main.c ****   /** Configure LSE Drive Capability
 501:Core/Src/main.c ****   */
 502:Core/Src/main.c ****   HAL_PWR_EnableBkUpAccess();
 503:Core/Src/main.c ****   __HAL_RCC_LSEDRIVE_CONFIG(RCC_LSEDRIVE_LOW);
 504:Core/Src/main.c **** 
 505:Core/Src/main.c ****   /** Initializes the RCC Oscillators according to the specified parameters
 506:Core/Src/main.c ****   * in the RCC_OscInitTypeDef structure.
 507:Core/Src/main.c ****   */
 508:Core/Src/main.c ****   RCC_OscInitStruct.OscillatorType = RCC_OSCILLATORTYPE_LSE|RCC_OSCILLATORTYPE_MSI;
 509:Core/Src/main.c ****   RCC_OscInitStruct.LSEState = RCC_LSE_ON;
 510:Core/Src/main.c ****   RCC_OscInitStruct.MSIState = RCC_MSI_ON;
 511:Core/Src/main.c ****   RCC_OscInitStruct.MSICalibrationValue = 0;
 512:Core/Src/main.c ****   RCC_OscInitStruct.MSIClockRange = RCC_MSIRANGE_6;
 513:Core/Src/main.c ****   RCC_OscInitStruct.PLL.PLLState = RCC_PLL_ON;
 514:Core/Src/main.c ****   RCC_OscInitStruct.PLL.PLLSource = RCC_PLLSOURCE_MSI;
 515:Core/Src/main.c ****   RCC_OscInitStruct.PLL.PLLM = 1;
 516:Core/Src/main.c ****   RCC_OscInitStruct.PLL.PLLN = 80;
 517:Core/Src/main.c ****   RCC_OscInitStruct.PLL.PLLP = RCC_PLLP_DIV2;
 518:Core/Src/main.c ****   RCC_OscInitStruct.PLL.PLLQ = RCC_PLLQ_DIV2;
 519:Core/Src/main.c ****   RCC_OscInitStruct.PLL.PLLR = RCC_PLLR_DIV4;
 520:Core/Src/main.c ****   if (HAL_RCC_OscConfig(&RCC_OscInitStruct) != HAL_OK)
 521:Core/Src/main.c ****   {
 522:Core/Src/main.c ****     Error_Handler();
 523:Core/Src/main.c ****   }
 524:Core/Src/main.c **** 
 525:Core/Src/main.c ****   /** Initializes the CPU, AHB and APB buses clocks
 526:Core/Src/main.c ****   */
 527:Core/Src/main.c ****   RCC_ClkInitStruct.ClockType = RCC_CLOCKTYPE_HCLK|RCC_CLOCKTYPE_SYSCLK
 528:Core/Src/main.c ****                               |RCC_CLOCKTYPE_PCLK1|RCC_CLOCKTYPE_PCLK2;
 529:Core/Src/main.c ****   RCC_ClkInitStruct.SYSCLKSource = RCC_SYSCLKSOURCE_PLLCLK;
 530:Core/Src/main.c ****   RCC_ClkInitStruct.AHBCLKDivider = RCC_SYSCLK_DIV1;
 531:Core/Src/main.c ****   RCC_ClkInitStruct.APB1CLKDivider = RCC_HCLK_DIV2;
 532:Core/Src/main.c ****   RCC_ClkInitStruct.APB2CLKDivider = RCC_HCLK_DIV1;
 533:Core/Src/main.c **** 
 534:Core/Src/main.c ****   if (HAL_RCC_ClockConfig(&RCC_ClkInitStruct, FLASH_LATENCY_4) != HAL_OK)
 535:Core/Src/main.c ****   {
 536:Core/Src/main.c ****     Error_Handler();
 537:Core/Src/main.c ****   }
 538:Core/Src/main.c **** 
 539:Core/Src/main.c ****   /** Enable MSI Auto calibration
 540:Core/Src/main.c ****   */
 541:Core/Src/main.c ****   HAL_RCCEx_EnableMSIPLLMode();
 542:Core/Src/main.c **** }
 543:Core/Src/main.c **** 
 544:Core/Src/main.c **** /**
ARM GAS  C:\Users\ldu08\AppData\Local\Temp\cc4QOEDi.s 			page 11


 545:Core/Src/main.c ****   * @brief Peripherals Common Clock Configuration
 546:Core/Src/main.c ****   * @retval None
 547:Core/Src/main.c ****   */
 548:Core/Src/main.c **** void PeriphCommonClock_Config(void)
 549:Core/Src/main.c **** {
 550:Core/Src/main.c ****   RCC_PeriphCLKInitTypeDef PeriphClkInit = {0};
 551:Core/Src/main.c **** 
 552:Core/Src/main.c ****   /** Initializes the peripherals clock
 553:Core/Src/main.c ****   */
 554:Core/Src/main.c ****   PeriphClkInit.PeriphClockSelection = RCC_PERIPHCLK_USB|RCC_PERIPHCLK_ADC;
 555:Core/Src/main.c ****   PeriphClkInit.AdcClockSelection = RCC_ADCCLKSOURCE_PLLSAI1;
 556:Core/Src/main.c ****   PeriphClkInit.UsbClockSelection = RCC_USBCLKSOURCE_PLLSAI1;
 557:Core/Src/main.c ****   PeriphClkInit.PLLSAI1.PLLSAI1Source = RCC_PLLSOURCE_MSI;
 558:Core/Src/main.c ****   PeriphClkInit.PLLSAI1.PLLSAI1M = 1;
 559:Core/Src/main.c ****   PeriphClkInit.PLLSAI1.PLLSAI1N = 24;
 560:Core/Src/main.c ****   PeriphClkInit.PLLSAI1.PLLSAI1P = RCC_PLLP_DIV2;
 561:Core/Src/main.c ****   PeriphClkInit.PLLSAI1.PLLSAI1Q = RCC_PLLQ_DIV2;
 562:Core/Src/main.c ****   PeriphClkInit.PLLSAI1.PLLSAI1R = RCC_PLLR_DIV2;
 563:Core/Src/main.c ****   PeriphClkInit.PLLSAI1.PLLSAI1ClockOut = RCC_PLLSAI1_48M2CLK|RCC_PLLSAI1_ADC1CLK;
 564:Core/Src/main.c ****   if (HAL_RCCEx_PeriphCLKConfig(&PeriphClkInit) != HAL_OK)
 565:Core/Src/main.c ****   {
 566:Core/Src/main.c ****     Error_Handler();
 567:Core/Src/main.c ****   }
 568:Core/Src/main.c **** }
 569:Core/Src/main.c **** 
 570:Core/Src/main.c **** /**
 571:Core/Src/main.c ****   * @brief ADC1 Initialization Function
 572:Core/Src/main.c ****   * @param None
 573:Core/Src/main.c ****   * @retval None
 574:Core/Src/main.c ****   */
 575:Core/Src/main.c **** static void MX_ADC1_Init(void)
 576:Core/Src/main.c **** {
 577:Core/Src/main.c **** 
 578:Core/Src/main.c ****   /* USER CODE BEGIN ADC1_Init 0 */
 579:Core/Src/main.c **** 
 580:Core/Src/main.c ****   /* USER CODE END ADC1_Init 0 */
 581:Core/Src/main.c **** 
 582:Core/Src/main.c ****   ADC_MultiModeTypeDef multimode = {0};
 583:Core/Src/main.c ****   ADC_ChannelConfTypeDef sConfig = {0};
 584:Core/Src/main.c **** 
 585:Core/Src/main.c ****   /* USER CODE BEGIN ADC1_Init 1 */
 586:Core/Src/main.c **** 
 587:Core/Src/main.c ****   /* USER CODE END ADC1_Init 1 */
 588:Core/Src/main.c **** 
 589:Core/Src/main.c ****   /** Common config
 590:Core/Src/main.c ****   */
 591:Core/Src/main.c ****   hadc1.Instance = ADC1;
 592:Core/Src/main.c ****   hadc1.Init.ClockPrescaler = ADC_CLOCK_ASYNC_DIV1;
 593:Core/Src/main.c ****   hadc1.Init.Resolution = ADC_RESOLUTION_12B;
 594:Core/Src/main.c ****   hadc1.Init.DataAlign = ADC_DATAALIGN_RIGHT;
 595:Core/Src/main.c ****   hadc1.Init.ScanConvMode = ADC_SCAN_DISABLE;
 596:Core/Src/main.c ****   hadc1.Init.EOCSelection = ADC_EOC_SINGLE_CONV;
 597:Core/Src/main.c ****   hadc1.Init.LowPowerAutoWait = DISABLE;
 598:Core/Src/main.c ****   hadc1.Init.ContinuousConvMode = DISABLE;
 599:Core/Src/main.c ****   hadc1.Init.NbrOfConversion = 1;
 600:Core/Src/main.c ****   hadc1.Init.DiscontinuousConvMode = DISABLE;
 601:Core/Src/main.c ****   hadc1.Init.ExternalTrigConv = ADC_EXTERNALTRIG_T6_TRGO;
ARM GAS  C:\Users\ldu08\AppData\Local\Temp\cc4QOEDi.s 			page 12


 602:Core/Src/main.c ****   hadc1.Init.ExternalTrigConvEdge = ADC_EXTERNALTRIGCONVEDGE_RISING;
 603:Core/Src/main.c ****   hadc1.Init.DMAContinuousRequests = ENABLE;
 604:Core/Src/main.c ****   hadc1.Init.Overrun = ADC_OVR_DATA_PRESERVED;
 605:Core/Src/main.c ****   hadc1.Init.OversamplingMode = DISABLE;
 606:Core/Src/main.c ****   if (HAL_ADC_Init(&hadc1) != HAL_OK)
 607:Core/Src/main.c ****   {
 608:Core/Src/main.c ****     Error_Handler();
 609:Core/Src/main.c ****   }
 610:Core/Src/main.c **** 
 611:Core/Src/main.c ****   /** Configure the ADC multi-mode
 612:Core/Src/main.c ****   */
 613:Core/Src/main.c ****   multimode.Mode = ADC_MODE_INDEPENDENT;
 614:Core/Src/main.c ****   if (HAL_ADCEx_MultiModeConfigChannel(&hadc1, &multimode) != HAL_OK)
 615:Core/Src/main.c ****   {
 616:Core/Src/main.c ****     Error_Handler();
 617:Core/Src/main.c ****   }
 618:Core/Src/main.c **** 
 619:Core/Src/main.c ****   /** Configure Regular Channel
 620:Core/Src/main.c ****   */
 621:Core/Src/main.c ****   sConfig.Channel = ADC_CHANNEL_1;
 622:Core/Src/main.c ****   sConfig.Rank = ADC_REGULAR_RANK_1;
 623:Core/Src/main.c ****   sConfig.SamplingTime = ADC_SAMPLETIME_2CYCLES_5;
 624:Core/Src/main.c ****   sConfig.SingleDiff = ADC_SINGLE_ENDED;
 625:Core/Src/main.c ****   sConfig.OffsetNumber = ADC_OFFSET_NONE;
 626:Core/Src/main.c ****   sConfig.Offset = 0;
 627:Core/Src/main.c ****   if (HAL_ADC_ConfigChannel(&hadc1, &sConfig) != HAL_OK)
 628:Core/Src/main.c ****   {
 629:Core/Src/main.c ****     Error_Handler();
 630:Core/Src/main.c ****   }
 631:Core/Src/main.c ****   /* USER CODE BEGIN ADC1_Init 2 */
 632:Core/Src/main.c **** 
 633:Core/Src/main.c ****   /* USER CODE END ADC1_Init 2 */
 634:Core/Src/main.c **** 
 635:Core/Src/main.c **** }
 636:Core/Src/main.c **** 
 637:Core/Src/main.c **** /**
 638:Core/Src/main.c ****   * @brief DAC1 Initialization Function
 639:Core/Src/main.c ****   * @param None
 640:Core/Src/main.c ****   * @retval None
 641:Core/Src/main.c ****   */
 642:Core/Src/main.c **** static void MX_DAC1_Init(void)
 643:Core/Src/main.c **** {
 644:Core/Src/main.c **** 
 645:Core/Src/main.c ****   /* USER CODE BEGIN DAC1_Init 0 */
 646:Core/Src/main.c **** 
 647:Core/Src/main.c ****   /* USER CODE END DAC1_Init 0 */
 648:Core/Src/main.c **** 
 649:Core/Src/main.c ****   DAC_ChannelConfTypeDef sConfig = {0};
 650:Core/Src/main.c **** 
 651:Core/Src/main.c ****   /* USER CODE BEGIN DAC1_Init 1 */
 652:Core/Src/main.c **** 
 653:Core/Src/main.c ****   /* USER CODE END DAC1_Init 1 */
 654:Core/Src/main.c **** 
 655:Core/Src/main.c ****   /** DAC Initialization
 656:Core/Src/main.c ****   */
 657:Core/Src/main.c ****   hdac1.Instance = DAC1;
 658:Core/Src/main.c ****   if (HAL_DAC_Init(&hdac1) != HAL_OK)
ARM GAS  C:\Users\ldu08\AppData\Local\Temp\cc4QOEDi.s 			page 13


 659:Core/Src/main.c ****   {
 660:Core/Src/main.c ****     Error_Handler();
 661:Core/Src/main.c ****   }
 662:Core/Src/main.c **** 
 663:Core/Src/main.c ****   /** DAC channel OUT1 config
 664:Core/Src/main.c ****   */
 665:Core/Src/main.c ****   sConfig.DAC_SampleAndHold = DAC_SAMPLEANDHOLD_DISABLE;
 666:Core/Src/main.c ****   sConfig.DAC_Trigger = DAC_TRIGGER_T6_TRGO;
 667:Core/Src/main.c ****   sConfig.DAC_OutputBuffer = DAC_OUTPUTBUFFER_ENABLE;
 668:Core/Src/main.c ****   sConfig.DAC_ConnectOnChipPeripheral = DAC_CHIPCONNECT_DISABLE;
 669:Core/Src/main.c ****   sConfig.DAC_UserTrimming = DAC_TRIMMING_FACTORY;
 670:Core/Src/main.c ****   if (HAL_DAC_ConfigChannel(&hdac1, &sConfig, DAC_CHANNEL_1) != HAL_OK)
 671:Core/Src/main.c ****   {
 672:Core/Src/main.c ****     Error_Handler();
 673:Core/Src/main.c ****   }
 674:Core/Src/main.c ****   /* USER CODE BEGIN DAC1_Init 2 */
 675:Core/Src/main.c **** 
 676:Core/Src/main.c ****   /* USER CODE END DAC1_Init 2 */
 677:Core/Src/main.c **** 
 678:Core/Src/main.c **** }
 679:Core/Src/main.c **** 
 680:Core/Src/main.c **** /**
 681:Core/Src/main.c ****   * @brief LPUART1 Initialization Function
 682:Core/Src/main.c ****   * @param None
 683:Core/Src/main.c ****   * @retval None
 684:Core/Src/main.c ****   */
 685:Core/Src/main.c **** static void MX_LPUART1_UART_Init(void)
 686:Core/Src/main.c **** {
 687:Core/Src/main.c **** 
 688:Core/Src/main.c ****   /* USER CODE BEGIN LPUART1_Init 0 */
 689:Core/Src/main.c **** 
 690:Core/Src/main.c ****   /* USER CODE END LPUART1_Init 0 */
 691:Core/Src/main.c **** 
 692:Core/Src/main.c ****   /* USER CODE BEGIN LPUART1_Init 1 */
 693:Core/Src/main.c **** 
 694:Core/Src/main.c ****   /* USER CODE END LPUART1_Init 1 */
 695:Core/Src/main.c ****   hlpuart1.Instance = LPUART1;
 696:Core/Src/main.c ****   hlpuart1.Init.BaudRate = 209700;
 697:Core/Src/main.c ****   hlpuart1.Init.WordLength = UART_WORDLENGTH_7B;
 698:Core/Src/main.c ****   hlpuart1.Init.StopBits = UART_STOPBITS_1;
 699:Core/Src/main.c ****   hlpuart1.Init.Parity = UART_PARITY_NONE;
 700:Core/Src/main.c ****   hlpuart1.Init.Mode = UART_MODE_TX_RX;
 701:Core/Src/main.c ****   hlpuart1.Init.HwFlowCtl = UART_HWCONTROL_NONE;
 702:Core/Src/main.c ****   hlpuart1.Init.OneBitSampling = UART_ONE_BIT_SAMPLE_DISABLE;
 703:Core/Src/main.c ****   hlpuart1.AdvancedInit.AdvFeatureInit = UART_ADVFEATURE_NO_INIT;
 704:Core/Src/main.c ****   if (HAL_UART_Init(&hlpuart1) != HAL_OK)
 705:Core/Src/main.c ****   {
 706:Core/Src/main.c ****     Error_Handler();
 707:Core/Src/main.c ****   }
 708:Core/Src/main.c ****   /* USER CODE BEGIN LPUART1_Init 2 */
 709:Core/Src/main.c **** 
 710:Core/Src/main.c ****   /* USER CODE END LPUART1_Init 2 */
 711:Core/Src/main.c **** 
 712:Core/Src/main.c **** }
 713:Core/Src/main.c **** 
 714:Core/Src/main.c **** /**
 715:Core/Src/main.c ****   * @brief TIM6 Initialization Function
ARM GAS  C:\Users\ldu08\AppData\Local\Temp\cc4QOEDi.s 			page 14


 716:Core/Src/main.c ****   * @param None
 717:Core/Src/main.c ****   * @retval None
 718:Core/Src/main.c ****   */
 719:Core/Src/main.c **** static void MX_TIM6_Init(void)
 720:Core/Src/main.c **** {
 721:Core/Src/main.c **** 
 722:Core/Src/main.c ****   /* USER CODE BEGIN TIM6_Init 0 */
 723:Core/Src/main.c **** 
 724:Core/Src/main.c ****   /* USER CODE END TIM6_Init 0 */
 725:Core/Src/main.c **** 
 726:Core/Src/main.c ****   TIM_MasterConfigTypeDef sMasterConfig = {0};
 727:Core/Src/main.c **** 
 728:Core/Src/main.c ****   /* USER CODE BEGIN TIM6_Init 1 */
 729:Core/Src/main.c **** 
 730:Core/Src/main.c ****   /* USER CODE END TIM6_Init 1 */
 731:Core/Src/main.c ****   htim6.Instance = TIM6;
 732:Core/Src/main.c ****   htim6.Init.Prescaler = 0;
 733:Core/Src/main.c ****   htim6.Init.CounterMode = TIM_COUNTERMODE_UP;
 734:Core/Src/main.c ****   htim6.Init.Period = 400;
 735:Core/Src/main.c ****   htim6.Init.AutoReloadPreload = TIM_AUTORELOAD_PRELOAD_DISABLE;
 736:Core/Src/main.c ****   if (HAL_TIM_Base_Init(&htim6) != HAL_OK)
 737:Core/Src/main.c ****   {
 738:Core/Src/main.c ****     Error_Handler();
 739:Core/Src/main.c ****   }
 740:Core/Src/main.c ****   sMasterConfig.MasterOutputTrigger = TIM_TRGO_UPDATE;
 741:Core/Src/main.c ****   sMasterConfig.MasterSlaveMode = TIM_MASTERSLAVEMODE_DISABLE;
 742:Core/Src/main.c ****   if (HAL_TIMEx_MasterConfigSynchronization(&htim6, &sMasterConfig) != HAL_OK)
 743:Core/Src/main.c ****   {
 744:Core/Src/main.c ****     Error_Handler();
 745:Core/Src/main.c ****   }
 746:Core/Src/main.c ****   /* USER CODE BEGIN TIM6_Init 2 */
 747:Core/Src/main.c **** 
 748:Core/Src/main.c ****   /* USER CODE END TIM6_Init 2 */
 749:Core/Src/main.c **** 
 750:Core/Src/main.c **** }
 751:Core/Src/main.c **** 
 752:Core/Src/main.c **** /**
 753:Core/Src/main.c ****   * @brief TIM7 Initialization Function
 754:Core/Src/main.c ****   * @param None
 755:Core/Src/main.c ****   * @retval None
 756:Core/Src/main.c ****   */
 757:Core/Src/main.c **** static void MX_TIM7_Init(void)
 758:Core/Src/main.c **** {
 759:Core/Src/main.c **** 
 760:Core/Src/main.c ****   /* USER CODE BEGIN TIM7_Init 0 */
 761:Core/Src/main.c **** 
 762:Core/Src/main.c ****   /* USER CODE END TIM7_Init 0 */
 763:Core/Src/main.c **** 
 764:Core/Src/main.c ****   TIM_MasterConfigTypeDef sMasterConfig = {0};
 765:Core/Src/main.c **** 
 766:Core/Src/main.c ****   /* USER CODE BEGIN TIM7_Init 1 */
 767:Core/Src/main.c **** 
 768:Core/Src/main.c ****   /* USER CODE END TIM7_Init 1 */
 769:Core/Src/main.c ****   htim7.Instance = TIM7;
 770:Core/Src/main.c ****   htim7.Init.Prescaler = 0;
 771:Core/Src/main.c ****   htim7.Init.CounterMode = TIM_COUNTERMODE_UP;
 772:Core/Src/main.c ****   htim7.Init.Period = 10000;
ARM GAS  C:\Users\ldu08\AppData\Local\Temp\cc4QOEDi.s 			page 15


 773:Core/Src/main.c ****   htim7.Init.AutoReloadPreload = TIM_AUTORELOAD_PRELOAD_DISABLE;
 774:Core/Src/main.c ****   if (HAL_TIM_Base_Init(&htim7) != HAL_OK)
 775:Core/Src/main.c ****   {
 776:Core/Src/main.c ****     Error_Handler();
 777:Core/Src/main.c ****   }
 778:Core/Src/main.c ****   sMasterConfig.MasterOutputTrigger = TIM_TRGO_RESET;
 779:Core/Src/main.c ****   sMasterConfig.MasterSlaveMode = TIM_MASTERSLAVEMODE_DISABLE;
 780:Core/Src/main.c ****   if (HAL_TIMEx_MasterConfigSynchronization(&htim7, &sMasterConfig) != HAL_OK)
 781:Core/Src/main.c ****   {
 782:Core/Src/main.c ****     Error_Handler();
 783:Core/Src/main.c ****   }
 784:Core/Src/main.c ****   /* USER CODE BEGIN TIM7_Init 2 */
 785:Core/Src/main.c **** 
 786:Core/Src/main.c ****   /* USER CODE END TIM7_Init 2 */
 787:Core/Src/main.c **** 
 788:Core/Src/main.c **** }
 789:Core/Src/main.c **** 
 790:Core/Src/main.c **** /**
 791:Core/Src/main.c ****   * @brief USB_OTG_FS Initialization Function
 792:Core/Src/main.c ****   * @param None
 793:Core/Src/main.c ****   * @retval None
 794:Core/Src/main.c ****   */
 795:Core/Src/main.c **** static void MX_USB_OTG_FS_PCD_Init(void)
 796:Core/Src/main.c **** {
 797:Core/Src/main.c **** 
 798:Core/Src/main.c ****   /* USER CODE BEGIN USB_OTG_FS_Init 0 */
 799:Core/Src/main.c **** 
 800:Core/Src/main.c ****   /* USER CODE END USB_OTG_FS_Init 0 */
 801:Core/Src/main.c **** 
 802:Core/Src/main.c ****   /* USER CODE BEGIN USB_OTG_FS_Init 1 */
 803:Core/Src/main.c **** 
 804:Core/Src/main.c ****   /* USER CODE END USB_OTG_FS_Init 1 */
 805:Core/Src/main.c ****   hpcd_USB_OTG_FS.Instance = USB_OTG_FS;
 806:Core/Src/main.c ****   hpcd_USB_OTG_FS.Init.dev_endpoints = 6;
 807:Core/Src/main.c ****   hpcd_USB_OTG_FS.Init.speed = PCD_SPEED_FULL;
 808:Core/Src/main.c ****   hpcd_USB_OTG_FS.Init.phy_itface = PCD_PHY_EMBEDDED;
 809:Core/Src/main.c ****   hpcd_USB_OTG_FS.Init.Sof_enable = ENABLE;
 810:Core/Src/main.c ****   hpcd_USB_OTG_FS.Init.low_power_enable = DISABLE;
 811:Core/Src/main.c ****   hpcd_USB_OTG_FS.Init.lpm_enable = DISABLE;
 812:Core/Src/main.c ****   hpcd_USB_OTG_FS.Init.battery_charging_enable = ENABLE;
 813:Core/Src/main.c ****   hpcd_USB_OTG_FS.Init.use_dedicated_ep1 = DISABLE;
 814:Core/Src/main.c ****   hpcd_USB_OTG_FS.Init.vbus_sensing_enable = ENABLE;
 815:Core/Src/main.c ****   if (HAL_PCD_Init(&hpcd_USB_OTG_FS) != HAL_OK)
 816:Core/Src/main.c ****   {
 817:Core/Src/main.c ****     Error_Handler();
 818:Core/Src/main.c ****   }
 819:Core/Src/main.c ****   /* USER CODE BEGIN USB_OTG_FS_Init 2 */
 820:Core/Src/main.c **** 
 821:Core/Src/main.c ****   /* USER CODE END USB_OTG_FS_Init 2 */
 822:Core/Src/main.c **** 
 823:Core/Src/main.c **** }
 824:Core/Src/main.c **** 
 825:Core/Src/main.c **** /**
 826:Core/Src/main.c ****   * Enable DMA controller clock
 827:Core/Src/main.c ****   */
 828:Core/Src/main.c **** static void MX_DMA_Init(void)
 829:Core/Src/main.c **** {
ARM GAS  C:\Users\ldu08\AppData\Local\Temp\cc4QOEDi.s 			page 16


 830:Core/Src/main.c **** 
 831:Core/Src/main.c ****   /* DMA controller clock enable */
 832:Core/Src/main.c ****   __HAL_RCC_DMA1_CLK_ENABLE();
 833:Core/Src/main.c **** 
 834:Core/Src/main.c ****   /* DMA interrupt init */
 835:Core/Src/main.c ****   /* DMA1_Channel1_IRQn interrupt configuration */
 836:Core/Src/main.c ****   HAL_NVIC_SetPriority(DMA1_Channel1_IRQn, 0, 0);
 837:Core/Src/main.c ****   HAL_NVIC_EnableIRQ(DMA1_Channel1_IRQn);
 838:Core/Src/main.c ****   /* DMA1_Channel3_IRQn interrupt configuration */
 839:Core/Src/main.c ****   HAL_NVIC_SetPriority(DMA1_Channel3_IRQn, 0, 0);
 840:Core/Src/main.c ****   HAL_NVIC_EnableIRQ(DMA1_Channel3_IRQn);
 841:Core/Src/main.c **** 
 842:Core/Src/main.c **** }
 843:Core/Src/main.c **** 
 844:Core/Src/main.c **** /**
 845:Core/Src/main.c ****   * @brief GPIO Initialization Function
 846:Core/Src/main.c ****   * @param None
 847:Core/Src/main.c ****   * @retval None
 848:Core/Src/main.c ****   */
 849:Core/Src/main.c **** static void MX_GPIO_Init(void)
 850:Core/Src/main.c **** {
  28              		.loc 1 850 1 view -0
  29              		.cfi_startproc
  30              		@ args = 0, pretend = 0, frame = 40
  31              		@ frame_needed = 0, uses_anonymous_args = 0
  32 0000 2DE9F041 		push	{r4, r5, r6, r7, r8, lr}
  33              		.cfi_def_cfa_offset 24
  34              		.cfi_offset 4, -24
  35              		.cfi_offset 5, -20
  36              		.cfi_offset 6, -16
  37              		.cfi_offset 7, -12
  38              		.cfi_offset 8, -8
  39              		.cfi_offset 14, -4
  40 0004 8AB0     		sub	sp, sp, #40
  41              		.cfi_def_cfa_offset 64
 851:Core/Src/main.c ****   GPIO_InitTypeDef GPIO_InitStruct = {0};
  42              		.loc 1 851 3 view .LVU1
  43              		.loc 1 851 20 is_stmt 0 view .LVU2
  44 0006 0024     		movs	r4, #0
  45 0008 0594     		str	r4, [sp, #20]
  46 000a 0694     		str	r4, [sp, #24]
  47 000c 0794     		str	r4, [sp, #28]
  48 000e 0894     		str	r4, [sp, #32]
  49 0010 0994     		str	r4, [sp, #36]
 852:Core/Src/main.c **** /* USER CODE BEGIN MX_GPIO_Init_1 */
 853:Core/Src/main.c **** /* USER CODE END MX_GPIO_Init_1 */
 854:Core/Src/main.c **** 
 855:Core/Src/main.c ****   /* GPIO Ports Clock Enable */
 856:Core/Src/main.c ****   __HAL_RCC_GPIOC_CLK_ENABLE();
  50              		.loc 1 856 3 is_stmt 1 view .LVU3
  51              	.LBB4:
  52              		.loc 1 856 3 view .LVU4
  53              		.loc 1 856 3 view .LVU5
  54 0012 3C4B     		ldr	r3, .L3
  55 0014 DA6C     		ldr	r2, [r3, #76]
  56 0016 42F00402 		orr	r2, r2, #4
  57 001a DA64     		str	r2, [r3, #76]
ARM GAS  C:\Users\ldu08\AppData\Local\Temp\cc4QOEDi.s 			page 17


  58              		.loc 1 856 3 view .LVU6
  59 001c DA6C     		ldr	r2, [r3, #76]
  60 001e 02F00402 		and	r2, r2, #4
  61 0022 0092     		str	r2, [sp]
  62              		.loc 1 856 3 view .LVU7
  63 0024 009A     		ldr	r2, [sp]
  64              	.LBE4:
  65              		.loc 1 856 3 view .LVU8
 857:Core/Src/main.c ****   __HAL_RCC_GPIOH_CLK_ENABLE();
  66              		.loc 1 857 3 view .LVU9
  67              	.LBB5:
  68              		.loc 1 857 3 view .LVU10
  69              		.loc 1 857 3 view .LVU11
  70 0026 DA6C     		ldr	r2, [r3, #76]
  71 0028 42F08002 		orr	r2, r2, #128
  72 002c DA64     		str	r2, [r3, #76]
  73              		.loc 1 857 3 view .LVU12
  74 002e DA6C     		ldr	r2, [r3, #76]
  75 0030 02F08002 		and	r2, r2, #128
  76 0034 0192     		str	r2, [sp, #4]
  77              		.loc 1 857 3 view .LVU13
  78 0036 019A     		ldr	r2, [sp, #4]
  79              	.LBE5:
  80              		.loc 1 857 3 view .LVU14
 858:Core/Src/main.c ****   __HAL_RCC_GPIOA_CLK_ENABLE();
  81              		.loc 1 858 3 view .LVU15
  82              	.LBB6:
  83              		.loc 1 858 3 view .LVU16
  84              		.loc 1 858 3 view .LVU17
  85 0038 DA6C     		ldr	r2, [r3, #76]
  86 003a 42F00102 		orr	r2, r2, #1
  87 003e DA64     		str	r2, [r3, #76]
  88              		.loc 1 858 3 view .LVU18
  89 0040 DA6C     		ldr	r2, [r3, #76]
  90 0042 02F00102 		and	r2, r2, #1
  91 0046 0292     		str	r2, [sp, #8]
  92              		.loc 1 858 3 view .LVU19
  93 0048 029A     		ldr	r2, [sp, #8]
  94              	.LBE6:
  95              		.loc 1 858 3 view .LVU20
 859:Core/Src/main.c ****   __HAL_RCC_GPIOB_CLK_ENABLE();
  96              		.loc 1 859 3 view .LVU21
  97              	.LBB7:
  98              		.loc 1 859 3 view .LVU22
  99              		.loc 1 859 3 view .LVU23
 100 004a DA6C     		ldr	r2, [r3, #76]
 101 004c 42F00202 		orr	r2, r2, #2
 102 0050 DA64     		str	r2, [r3, #76]
 103              		.loc 1 859 3 view .LVU24
 104 0052 DA6C     		ldr	r2, [r3, #76]
 105 0054 02F00202 		and	r2, r2, #2
 106 0058 0392     		str	r2, [sp, #12]
 107              		.loc 1 859 3 view .LVU25
 108 005a 039A     		ldr	r2, [sp, #12]
 109              	.LBE7:
 110              		.loc 1 859 3 view .LVU26
 860:Core/Src/main.c ****   __HAL_RCC_GPIOG_CLK_ENABLE();
ARM GAS  C:\Users\ldu08\AppData\Local\Temp\cc4QOEDi.s 			page 18


 111              		.loc 1 860 3 view .LVU27
 112              	.LBB8:
 113              		.loc 1 860 3 view .LVU28
 114              		.loc 1 860 3 view .LVU29
 115 005c DA6C     		ldr	r2, [r3, #76]
 116 005e 42F04002 		orr	r2, r2, #64
 117 0062 DA64     		str	r2, [r3, #76]
 118              		.loc 1 860 3 view .LVU30
 119 0064 DB6C     		ldr	r3, [r3, #76]
 120 0066 03F04003 		and	r3, r3, #64
 121 006a 0493     		str	r3, [sp, #16]
 122              		.loc 1 860 3 view .LVU31
 123 006c 049B     		ldr	r3, [sp, #16]
 124              	.LBE8:
 125              		.loc 1 860 3 view .LVU32
 861:Core/Src/main.c ****   HAL_PWREx_EnableVddIO2();
 126              		.loc 1 861 3 view .LVU33
 127 006e FFF7FEFF 		bl	HAL_PWREx_EnableVddIO2
 128              	.LVL0:
 862:Core/Src/main.c **** 
 863:Core/Src/main.c ****   /*Configure GPIO pin Output Level */
 864:Core/Src/main.c ****   HAL_GPIO_WritePin(GPIOB, LD3_Pin|LD2_Pin, GPIO_PIN_RESET);
 129              		.loc 1 864 3 view .LVU34
 130 0072 DFF89C80 		ldr	r8, .L3+12
 131 0076 2246     		mov	r2, r4
 132 0078 4FF48141 		mov	r1, #16512
 133 007c 4046     		mov	r0, r8
 134 007e FFF7FEFF 		bl	HAL_GPIO_WritePin
 135              	.LVL1:
 865:Core/Src/main.c **** 
 866:Core/Src/main.c ****   /*Configure GPIO pin Output Level */
 867:Core/Src/main.c ****   HAL_GPIO_WritePin(USB_PowerSwitchOn_GPIO_Port, USB_PowerSwitchOn_Pin, GPIO_PIN_RESET);
 136              		.loc 1 867 3 view .LVU35
 137 0082 214F     		ldr	r7, .L3+4
 138 0084 2246     		mov	r2, r4
 139 0086 4021     		movs	r1, #64
 140 0088 3846     		mov	r0, r7
 141 008a FFF7FEFF 		bl	HAL_GPIO_WritePin
 142              	.LVL2:
 868:Core/Src/main.c **** 
 869:Core/Src/main.c ****   /*Configure GPIO pin Output Level */
 870:Core/Src/main.c ****   HAL_GPIO_WritePin(GPIOC, GPIO_PIN_8, GPIO_PIN_RESET);
 143              		.loc 1 870 3 view .LVU36
 144 008e 1F4D     		ldr	r5, .L3+8
 145 0090 2246     		mov	r2, r4
 146 0092 4FF48071 		mov	r1, #256
 147 0096 2846     		mov	r0, r5
 148 0098 FFF7FEFF 		bl	HAL_GPIO_WritePin
 149              	.LVL3:
 871:Core/Src/main.c **** 
 872:Core/Src/main.c ****   /*Configure GPIO pin : B1_Pin */
 873:Core/Src/main.c ****   GPIO_InitStruct.Pin = B1_Pin;
 150              		.loc 1 873 3 view .LVU37
 151              		.loc 1 873 23 is_stmt 0 view .LVU38
 152 009c 4FF40053 		mov	r3, #8192
 153 00a0 0593     		str	r3, [sp, #20]
 874:Core/Src/main.c ****   GPIO_InitStruct.Mode = GPIO_MODE_IT_RISING;
ARM GAS  C:\Users\ldu08\AppData\Local\Temp\cc4QOEDi.s 			page 19


 154              		.loc 1 874 3 is_stmt 1 view .LVU39
 155              		.loc 1 874 24 is_stmt 0 view .LVU40
 156 00a2 4FF48813 		mov	r3, #1114112
 157 00a6 0693     		str	r3, [sp, #24]
 875:Core/Src/main.c ****   GPIO_InitStruct.Pull = GPIO_NOPULL;
 158              		.loc 1 875 3 is_stmt 1 view .LVU41
 159              		.loc 1 875 24 is_stmt 0 view .LVU42
 160 00a8 0794     		str	r4, [sp, #28]
 876:Core/Src/main.c ****   HAL_GPIO_Init(B1_GPIO_Port, &GPIO_InitStruct);
 161              		.loc 1 876 3 is_stmt 1 view .LVU43
 162 00aa 05A9     		add	r1, sp, #20
 163 00ac 2846     		mov	r0, r5
 164 00ae FFF7FEFF 		bl	HAL_GPIO_Init
 165              	.LVL4:
 877:Core/Src/main.c **** 
 878:Core/Src/main.c ****   /*Configure GPIO pins : LD3_Pin LD2_Pin */
 879:Core/Src/main.c ****   GPIO_InitStruct.Pin = LD3_Pin|LD2_Pin;
 166              		.loc 1 879 3 view .LVU44
 167              		.loc 1 879 23 is_stmt 0 view .LVU45
 168 00b2 4FF48143 		mov	r3, #16512
 169 00b6 0593     		str	r3, [sp, #20]
 880:Core/Src/main.c ****   GPIO_InitStruct.Mode = GPIO_MODE_OUTPUT_PP;
 170              		.loc 1 880 3 is_stmt 1 view .LVU46
 171              		.loc 1 880 24 is_stmt 0 view .LVU47
 172 00b8 0126     		movs	r6, #1
 173 00ba 0696     		str	r6, [sp, #24]
 881:Core/Src/main.c ****   GPIO_InitStruct.Pull = GPIO_NOPULL;
 174              		.loc 1 881 3 is_stmt 1 view .LVU48
 175              		.loc 1 881 24 is_stmt 0 view .LVU49
 176 00bc 0794     		str	r4, [sp, #28]
 882:Core/Src/main.c ****   GPIO_InitStruct.Speed = GPIO_SPEED_FREQ_LOW;
 177              		.loc 1 882 3 is_stmt 1 view .LVU50
 178              		.loc 1 882 25 is_stmt 0 view .LVU51
 179 00be 0894     		str	r4, [sp, #32]
 883:Core/Src/main.c ****   HAL_GPIO_Init(GPIOB, &GPIO_InitStruct);
 180              		.loc 1 883 3 is_stmt 1 view .LVU52
 181 00c0 05A9     		add	r1, sp, #20
 182 00c2 4046     		mov	r0, r8
 183 00c4 FFF7FEFF 		bl	HAL_GPIO_Init
 184              	.LVL5:
 884:Core/Src/main.c **** 
 885:Core/Src/main.c ****   /*Configure GPIO pin : USB_OverCurrent_Pin */
 886:Core/Src/main.c ****   GPIO_InitStruct.Pin = USB_OverCurrent_Pin;
 185              		.loc 1 886 3 view .LVU53
 186              		.loc 1 886 23 is_stmt 0 view .LVU54
 187 00c8 2023     		movs	r3, #32
 188 00ca 0593     		str	r3, [sp, #20]
 887:Core/Src/main.c ****   GPIO_InitStruct.Mode = GPIO_MODE_INPUT;
 189              		.loc 1 887 3 is_stmt 1 view .LVU55
 190              		.loc 1 887 24 is_stmt 0 view .LVU56
 191 00cc 0694     		str	r4, [sp, #24]
 888:Core/Src/main.c ****   GPIO_InitStruct.Pull = GPIO_NOPULL;
 192              		.loc 1 888 3 is_stmt 1 view .LVU57
 193              		.loc 1 888 24 is_stmt 0 view .LVU58
 194 00ce 0794     		str	r4, [sp, #28]
 889:Core/Src/main.c ****   HAL_GPIO_Init(USB_OverCurrent_GPIO_Port, &GPIO_InitStruct);
 195              		.loc 1 889 3 is_stmt 1 view .LVU59
ARM GAS  C:\Users\ldu08\AppData\Local\Temp\cc4QOEDi.s 			page 20


 196 00d0 05A9     		add	r1, sp, #20
 197 00d2 3846     		mov	r0, r7
 198 00d4 FFF7FEFF 		bl	HAL_GPIO_Init
 199              	.LVL6:
 890:Core/Src/main.c **** 
 891:Core/Src/main.c ****   /*Configure GPIO pin : USB_PowerSwitchOn_Pin */
 892:Core/Src/main.c ****   GPIO_InitStruct.Pin = USB_PowerSwitchOn_Pin;
 200              		.loc 1 892 3 view .LVU60
 201              		.loc 1 892 23 is_stmt 0 view .LVU61
 202 00d8 4023     		movs	r3, #64
 203 00da 0593     		str	r3, [sp, #20]
 893:Core/Src/main.c ****   GPIO_InitStruct.Mode = GPIO_MODE_OUTPUT_PP;
 204              		.loc 1 893 3 is_stmt 1 view .LVU62
 205              		.loc 1 893 24 is_stmt 0 view .LVU63
 206 00dc 0696     		str	r6, [sp, #24]
 894:Core/Src/main.c ****   GPIO_InitStruct.Pull = GPIO_NOPULL;
 207              		.loc 1 894 3 is_stmt 1 view .LVU64
 208              		.loc 1 894 24 is_stmt 0 view .LVU65
 209 00de 0794     		str	r4, [sp, #28]
 895:Core/Src/main.c ****   GPIO_InitStruct.Speed = GPIO_SPEED_FREQ_LOW;
 210              		.loc 1 895 3 is_stmt 1 view .LVU66
 211              		.loc 1 895 25 is_stmt 0 view .LVU67
 212 00e0 0894     		str	r4, [sp, #32]
 896:Core/Src/main.c ****   HAL_GPIO_Init(USB_PowerSwitchOn_GPIO_Port, &GPIO_InitStruct);
 213              		.loc 1 896 3 is_stmt 1 view .LVU68
 214 00e2 05A9     		add	r1, sp, #20
 215 00e4 3846     		mov	r0, r7
 216 00e6 FFF7FEFF 		bl	HAL_GPIO_Init
 217              	.LVL7:
 897:Core/Src/main.c **** 
 898:Core/Src/main.c ****   /*Configure GPIO pin : PC8 */
 899:Core/Src/main.c ****   GPIO_InitStruct.Pin = GPIO_PIN_8;
 218              		.loc 1 899 3 view .LVU69
 219              		.loc 1 899 23 is_stmt 0 view .LVU70
 220 00ea 4FF48073 		mov	r3, #256
 221 00ee 0593     		str	r3, [sp, #20]
 900:Core/Src/main.c ****   GPIO_InitStruct.Mode = GPIO_MODE_OUTPUT_PP;
 222              		.loc 1 900 3 is_stmt 1 view .LVU71
 223              		.loc 1 900 24 is_stmt 0 view .LVU72
 224 00f0 0696     		str	r6, [sp, #24]
 901:Core/Src/main.c ****   GPIO_InitStruct.Pull = GPIO_NOPULL;
 225              		.loc 1 901 3 is_stmt 1 view .LVU73
 226              		.loc 1 901 24 is_stmt 0 view .LVU74
 227 00f2 0794     		str	r4, [sp, #28]
 902:Core/Src/main.c ****   GPIO_InitStruct.Speed = GPIO_SPEED_FREQ_LOW;
 228              		.loc 1 902 3 is_stmt 1 view .LVU75
 229              		.loc 1 902 25 is_stmt 0 view .LVU76
 230 00f4 0894     		str	r4, [sp, #32]
 903:Core/Src/main.c ****   HAL_GPIO_Init(GPIOC, &GPIO_InitStruct);
 231              		.loc 1 903 3 is_stmt 1 view .LVU77
 232 00f6 05A9     		add	r1, sp, #20
 233 00f8 2846     		mov	r0, r5
 234 00fa FFF7FEFF 		bl	HAL_GPIO_Init
 235              	.LVL8:
 904:Core/Src/main.c **** 
 905:Core/Src/main.c **** /* USER CODE BEGIN MX_GPIO_Init_2 */
 906:Core/Src/main.c **** /* USER CODE END MX_GPIO_Init_2 */
ARM GAS  C:\Users\ldu08\AppData\Local\Temp\cc4QOEDi.s 			page 21


 907:Core/Src/main.c **** }
 236              		.loc 1 907 1 is_stmt 0 view .LVU78
 237 00fe 0AB0     		add	sp, sp, #40
 238              		.cfi_def_cfa_offset 24
 239              		@ sp needed
 240 0100 BDE8F081 		pop	{r4, r5, r6, r7, r8, pc}
 241              	.L4:
 242              		.align	2
 243              	.L3:
 244 0104 00100240 		.word	1073876992
 245 0108 00180048 		.word	1207965696
 246 010c 00080048 		.word	1207961600
 247 0110 00040048 		.word	1207960576
 248              		.cfi_endproc
 249              	.LFE337:
 251              		.section	.text.MX_DMA_Init,"ax",%progbits
 252              		.align	1
 253              		.syntax unified
 254              		.thumb
 255              		.thumb_func
 257              	MX_DMA_Init:
 258              	.LFB336:
 829:Core/Src/main.c **** 
 259              		.loc 1 829 1 is_stmt 1 view -0
 260              		.cfi_startproc
 261              		@ args = 0, pretend = 0, frame = 8
 262              		@ frame_needed = 0, uses_anonymous_args = 0
 263 0000 00B5     		push	{lr}
 264              		.cfi_def_cfa_offset 4
 265              		.cfi_offset 14, -4
 266 0002 83B0     		sub	sp, sp, #12
 267              		.cfi_def_cfa_offset 16
 832:Core/Src/main.c **** 
 268              		.loc 1 832 3 view .LVU80
 269              	.LBB9:
 832:Core/Src/main.c **** 
 270              		.loc 1 832 3 view .LVU81
 832:Core/Src/main.c **** 
 271              		.loc 1 832 3 view .LVU82
 272 0004 0E4B     		ldr	r3, .L7
 273 0006 9A6C     		ldr	r2, [r3, #72]
 274 0008 42F00102 		orr	r2, r2, #1
 275 000c 9A64     		str	r2, [r3, #72]
 832:Core/Src/main.c **** 
 276              		.loc 1 832 3 view .LVU83
 277 000e 9B6C     		ldr	r3, [r3, #72]
 278 0010 03F00103 		and	r3, r3, #1
 279 0014 0193     		str	r3, [sp, #4]
 832:Core/Src/main.c **** 
 280              		.loc 1 832 3 view .LVU84
 281 0016 019B     		ldr	r3, [sp, #4]
 282              	.LBE9:
 832:Core/Src/main.c **** 
 283              		.loc 1 832 3 view .LVU85
 836:Core/Src/main.c ****   HAL_NVIC_EnableIRQ(DMA1_Channel1_IRQn);
 284              		.loc 1 836 3 view .LVU86
 285 0018 0022     		movs	r2, #0
ARM GAS  C:\Users\ldu08\AppData\Local\Temp\cc4QOEDi.s 			page 22


 286 001a 1146     		mov	r1, r2
 287 001c 0B20     		movs	r0, #11
 288 001e FFF7FEFF 		bl	HAL_NVIC_SetPriority
 289              	.LVL9:
 837:Core/Src/main.c ****   /* DMA1_Channel3_IRQn interrupt configuration */
 290              		.loc 1 837 3 view .LVU87
 291 0022 0B20     		movs	r0, #11
 292 0024 FFF7FEFF 		bl	HAL_NVIC_EnableIRQ
 293              	.LVL10:
 839:Core/Src/main.c ****   HAL_NVIC_EnableIRQ(DMA1_Channel3_IRQn);
 294              		.loc 1 839 3 view .LVU88
 295 0028 0022     		movs	r2, #0
 296 002a 1146     		mov	r1, r2
 297 002c 0D20     		movs	r0, #13
 298 002e FFF7FEFF 		bl	HAL_NVIC_SetPriority
 299              	.LVL11:
 840:Core/Src/main.c **** 
 300              		.loc 1 840 3 view .LVU89
 301 0032 0D20     		movs	r0, #13
 302 0034 FFF7FEFF 		bl	HAL_NVIC_EnableIRQ
 303              	.LVL12:
 842:Core/Src/main.c **** 
 304              		.loc 1 842 1 is_stmt 0 view .LVU90
 305 0038 03B0     		add	sp, sp, #12
 306              		.cfi_def_cfa_offset 4
 307              		@ sp needed
 308 003a 5DF804FB 		ldr	pc, [sp], #4
 309              	.L8:
 310 003e 00BF     		.align	2
 311              	.L7:
 312 0040 00100240 		.word	1073876992
 313              		.cfi_endproc
 314              	.LFE336:
 316              		.section	.text.HAL_ADC_ConvHalfCpltCallback,"ax",%progbits
 317              		.align	1
 318              		.global	HAL_ADC_ConvHalfCpltCallback
 319              		.syntax unified
 320              		.thumb
 321              		.thumb_func
 323              	HAL_ADC_ConvHalfCpltCallback:
 324              	.LVL13:
 325              	.LFB321:
 322:Core/Src/main.c ****   //first half of adc buffer is full
 326              		.loc 1 322 60 is_stmt 1 view -0
 327              		.cfi_startproc
 328              		@ args = 0, pretend = 0, frame = 0
 329              		@ frame_needed = 0, uses_anonymous_args = 0
 330              		@ link register save eliminated.
 324:Core/Src/main.c ****   out_buf_ptr = &dac_val[HALF_BUF_SIZE];// + HALF_BUF_SIZE;
 331              		.loc 1 324 3 view .LVU92
 324:Core/Src/main.c ****   out_buf_ptr = &dac_val[HALF_BUF_SIZE];// + HALF_BUF_SIZE;
 332              		.loc 1 324 14 is_stmt 0 view .LVU93
 333 0000 044B     		ldr	r3, .L10
 334 0002 054A     		ldr	r2, .L10+4
 335 0004 1A60     		str	r2, [r3]
 325:Core/Src/main.c **** 
 336              		.loc 1 325 3 is_stmt 1 view .LVU94
ARM GAS  C:\Users\ldu08\AppData\Local\Temp\cc4QOEDi.s 			page 23


 325:Core/Src/main.c **** 
 337              		.loc 1 325 15 is_stmt 0 view .LVU95
 338 0006 054B     		ldr	r3, .L10+8
 339 0008 054A     		ldr	r2, .L10+12
 340 000a 1A60     		str	r2, [r3]
 334:Core/Src/main.c **** }
 341              		.loc 1 334 3 is_stmt 1 view .LVU96
 334:Core/Src/main.c **** }
 342              		.loc 1 334 7 is_stmt 0 view .LVU97
 343 000c 054B     		ldr	r3, .L10+16
 344 000e 0122     		movs	r2, #1
 345 0010 1A60     		str	r2, [r3]
 335:Core/Src/main.c **** 
 346              		.loc 1 335 1 view .LVU98
 347 0012 7047     		bx	lr
 348              	.L11:
 349              		.align	2
 350              	.L10:
 351 0014 00000000 		.word	.LANCHOR0
 352 0018 00000000 		.word	.LANCHOR1
 353 001c 00000000 		.word	.LANCHOR2
 354 0020 00020000 		.word	.LANCHOR3+512
 355 0024 00000000 		.word	.LANCHOR4
 356              		.cfi_endproc
 357              	.LFE321:
 359              		.section	.text.HAL_ADC_ConvCpltCallback,"ax",%progbits
 360              		.align	1
 361              		.global	HAL_ADC_ConvCpltCallback
 362              		.syntax unified
 363              		.thumb
 364              		.thumb_func
 366              	HAL_ADC_ConvCpltCallback:
 367              	.LVL14:
 368              	.LFB322:
 337:Core/Src/main.c ****   //second half of adc buffer is full
 369              		.loc 1 337 56 is_stmt 1 view -0
 370              		.cfi_startproc
 371              		@ args = 0, pretend = 0, frame = 0
 372              		@ frame_needed = 0, uses_anonymous_args = 0
 373              		@ link register save eliminated.
 339:Core/Src/main.c ****   out_buf_ptr = &dac_val[0];
 374              		.loc 1 339 3 view .LVU100
 339:Core/Src/main.c ****   out_buf_ptr = &dac_val[0];
 375              		.loc 1 339 14 is_stmt 0 view .LVU101
 376 0000 044B     		ldr	r3, .L13
 377 0002 054A     		ldr	r2, .L13+4
 378 0004 1A60     		str	r2, [r3]
 340:Core/Src/main.c ****   
 379              		.loc 1 340 3 is_stmt 1 view .LVU102
 340:Core/Src/main.c ****   
 380              		.loc 1 340 15 is_stmt 0 view .LVU103
 381 0006 054B     		ldr	r3, .L13+8
 382 0008 054A     		ldr	r2, .L13+12
 383 000a 1A60     		str	r2, [r3]
 349:Core/Src/main.c **** }
 384              		.loc 1 349 3 is_stmt 1 view .LVU104
 349:Core/Src/main.c **** }
ARM GAS  C:\Users\ldu08\AppData\Local\Temp\cc4QOEDi.s 			page 24


 385              		.loc 1 349 7 is_stmt 0 view .LVU105
 386 000c 054B     		ldr	r3, .L13+16
 387 000e 0122     		movs	r2, #1
 388 0010 1A60     		str	r2, [r3]
 350:Core/Src/main.c **** 
 389              		.loc 1 350 1 view .LVU106
 390 0012 7047     		bx	lr
 391              	.L14:
 392              		.align	2
 393              	.L13:
 394 0014 00000000 		.word	.LANCHOR0
 395 0018 00020000 		.word	.LANCHOR1+512
 396 001c 00000000 		.word	.LANCHOR2
 397 0020 00000000 		.word	.LANCHOR3
 398 0024 00000000 		.word	.LANCHOR4
 399              		.cfi_endproc
 400              	.LFE322:
 402              		.section	.text.HAL_TIM_PeriodElapsedCallback,"ax",%progbits
 403              		.align	1
 404              		.global	HAL_TIM_PeriodElapsedCallback
 405              		.syntax unified
 406              		.thumb
 407              		.thumb_func
 409              	HAL_TIM_PeriodElapsedCallback:
 410              	.LVL15:
 411              	.LFB323:
 352:Core/Src/main.c ****   if (htim == &htim7) {
 412              		.loc 1 352 61 is_stmt 1 view -0
 413              		.cfi_startproc
 414              		@ args = 0, pretend = 0, frame = 0
 415              		@ frame_needed = 0, uses_anonymous_args = 0
 416              		@ link register save eliminated.
 353:Core/Src/main.c ****     //alpha+=0.05;
 417              		.loc 1 353 3 view .LVU108
 356:Core/Src/main.c **** 
 418              		.loc 1 356 3 view .LVU109
 358:Core/Src/main.c ****     //out_out_ptr++;
 419              		.loc 1 358 3 view .LVU110
 362:Core/Src/main.c **** }
 420              		.loc 1 362 3 view .LVU111
 363:Core/Src/main.c **** 
 421              		.loc 1 363 1 is_stmt 0 view .LVU112
 422 0000 7047     		bx	lr
 423              		.cfi_endproc
 424              	.LFE323:
 426              		.section	.text.ema_lpf,"ax",%progbits
 427              		.align	1
 428              		.global	ema_lpf
 429              		.syntax unified
 430              		.thumb
 431              		.thumb_func
 433              	ema_lpf:
 434              	.LVL16:
 435              	.LFB324:
 367:Core/Src/main.c ****   ema_out = ema_alpha * in + (1.0f - ema_alpha) * ema_out;
 436              		.loc 1 367 24 is_stmt 1 view -0
 437              		.cfi_startproc
ARM GAS  C:\Users\ldu08\AppData\Local\Temp\cc4QOEDi.s 			page 25


 438              		@ args = 0, pretend = 0, frame = 0
 439              		@ frame_needed = 0, uses_anonymous_args = 0
 440              		@ link register save eliminated.
 368:Core/Src/main.c **** }
 441              		.loc 1 368 3 view .LVU114
 368:Core/Src/main.c **** }
 442              		.loc 1 368 23 is_stmt 0 view .LVU115
 443 0000 094B     		ldr	r3, .L17
 444 0002 93ED007A 		vldr.32	s14, [r3]
 445 0006 27EE000A 		vmul.f32	s0, s14, s0
 446              	.LVL17:
 368:Core/Src/main.c **** }
 447              		.loc 1 368 36 view .LVU116
 448 000a F7EE007A 		vmov.f32	s15, #1.0e+0
 449 000e 77EEC77A 		vsub.f32	s15, s15, s14
 368:Core/Src/main.c **** }
 450              		.loc 1 368 49 view .LVU117
 451 0012 064B     		ldr	r3, .L17+4
 452 0014 93ED007A 		vldr.32	s14, [r3]
 453 0018 67EE877A 		vmul.f32	s15, s15, s14
 368:Core/Src/main.c **** }
 454              		.loc 1 368 28 view .LVU118
 455 001c 30EE270A 		vadd.f32	s0, s0, s15
 368:Core/Src/main.c **** }
 456              		.loc 1 368 11 view .LVU119
 457 0020 83ED000A 		vstr.32	s0, [r3]
 369:Core/Src/main.c **** 
 458              		.loc 1 369 1 view .LVU120
 459 0024 7047     		bx	lr
 460              	.L18:
 461 0026 00BF     		.align	2
 462              	.L17:
 463 0028 00000000 		.word	.LANCHOR5
 464 002c 00000000 		.word	.LANCHOR6
 465              		.cfi_endproc
 466              	.LFE324:
 468              		.global	__aeabi_f2d
 469              		.global	__aeabi_dmul
 470              		.global	__aeabi_dadd
 471              		.global	__aeabi_d2f
 472              		.section	.text.fir,"ax",%progbits
 473              		.align	1
 474              		.global	fir
 475              		.syntax unified
 476              		.thumb
 477              		.thumb_func
 479              	fir:
 480              	.LVL18:
 481              	.LFB325:
 375:Core/Src/main.c ****   float in_f = (float)in;
 482              		.loc 1 375 22 is_stmt 1 view -0
 483              		.cfi_startproc
 484              		@ args = 0, pretend = 0, frame = 0
 485              		@ frame_needed = 0, uses_anonymous_args = 0
 375:Core/Src/main.c ****   float in_f = (float)in;
 486              		.loc 1 375 22 is_stmt 0 view .LVU122
 487 0000 2DE9F843 		push	{r3, r4, r5, r6, r7, r8, r9, lr}
ARM GAS  C:\Users\ldu08\AppData\Local\Temp\cc4QOEDi.s 			page 26


 488              		.cfi_def_cfa_offset 32
 489              		.cfi_offset 3, -32
 490              		.cfi_offset 4, -28
 491              		.cfi_offset 5, -24
 492              		.cfi_offset 6, -20
 493              		.cfi_offset 7, -16
 494              		.cfi_offset 8, -12
 495              		.cfi_offset 9, -8
 496              		.cfi_offset 14, -4
 497 0004 2DED028B 		vpush.64	{d8}
 498              		.cfi_def_cfa_offset 40
 499              		.cfi_offset 80, -40
 500              		.cfi_offset 81, -36
 501 0008 08EE100A 		vmov	s16, r0	@ int
 376:Core/Src/main.c ****   float fir_out = 0;
 502              		.loc 1 376 3 is_stmt 1 view .LVU123
 376:Core/Src/main.c ****   float fir_out = 0;
 503              		.loc 1 376 9 is_stmt 0 view .LVU124
 504 000c B8EEC88A 		vcvt.f32.s32	s16, s16
 505              	.LVL19:
 377:Core/Src/main.c ****   for (int i=0;i<FILTER_TAP_NUM;i++) {
 506              		.loc 1 377 3 is_stmt 1 view .LVU125
 378:Core/Src/main.c ****     fir_out += filter_taps[firptr[i]] * firdata[i];
 507              		.loc 1 378 3 view .LVU126
 508              	.LBB10:
 378:Core/Src/main.c ****     fir_out += filter_taps[firptr[i]] * firdata[i];
 509              		.loc 1 378 8 view .LVU127
 378:Core/Src/main.c ****     fir_out += filter_taps[firptr[i]] * firdata[i];
 510              		.loc 1 378 12 is_stmt 0 view .LVU128
 511 0010 0024     		movs	r4, #0
 512              	.LBE10:
 377:Core/Src/main.c ****   for (int i=0;i<FILTER_TAP_NUM;i++) {
 513              		.loc 1 377 9 view .LVU129
 514 0012 0026     		movs	r6, #0
 515              	.LBB11:
 378:Core/Src/main.c ****     fir_out += filter_taps[firptr[i]] * firdata[i];
 516              		.loc 1 378 3 view .LVU130
 517 0014 23E0     		b	.L20
 518              	.LVL20:
 519              	.L21:
 379:Core/Src/main.c ****     firptr[i]++;
 520              		.loc 1 379 5 is_stmt 1 discriminator 3 view .LVU131
 379:Core/Src/main.c ****     firptr[i]++;
 521              		.loc 1 379 34 is_stmt 0 discriminator 3 view .LVU132
 522 0016 204F     		ldr	r7, .L25
 523 0018 57F82450 		ldr	r5, [r7, r4, lsl #2]
 379:Core/Src/main.c ****     firptr[i]++;
 524              		.loc 1 379 27 discriminator 3 view .LVU133
 525 001c 1F4B     		ldr	r3, .L25+4
 526 001e 03EBC503 		add	r3, r3, r5, lsl #3
 527 0022 D3E90089 		ldrd	r8, [r3]
 379:Core/Src/main.c ****     firptr[i]++;
 528              		.loc 1 379 48 discriminator 3 view .LVU134
 529 0026 1E4B     		ldr	r3, .L25+8
 530 0028 03EB8403 		add	r3, r3, r4, lsl #2
 531 002c 1868     		ldr	r0, [r3]	@ float
 532 002e FFF7FEFF 		bl	__aeabi_f2d
ARM GAS  C:\Users\ldu08\AppData\Local\Temp\cc4QOEDi.s 			page 27


 533              	.LVL21:
 534 0032 0246     		mov	r2, r0
 535 0034 0B46     		mov	r3, r1
 379:Core/Src/main.c ****     firptr[i]++;
 536              		.loc 1 379 39 discriminator 3 view .LVU135
 537 0036 4046     		mov	r0, r8
 538 0038 4946     		mov	r1, r9
 539 003a FFF7FEFF 		bl	__aeabi_dmul
 540              	.LVL22:
 541 003e 8046     		mov	r8, r0
 542 0040 8946     		mov	r9, r1
 379:Core/Src/main.c ****     firptr[i]++;
 543              		.loc 1 379 13 discriminator 3 view .LVU136
 544 0042 3046     		mov	r0, r6	@ float
 545 0044 FFF7FEFF 		bl	__aeabi_f2d
 546              	.LVL23:
 547 0048 4246     		mov	r2, r8
 548 004a 4B46     		mov	r3, r9
 549 004c FFF7FEFF 		bl	__aeabi_dadd
 550              	.LVL24:
 551 0050 FFF7FEFF 		bl	__aeabi_d2f
 552              	.LVL25:
 553 0054 0646     		mov	r6, r0	@ float
 554              	.LVL26:
 380:Core/Src/main.c ****   }
 555              		.loc 1 380 5 is_stmt 1 discriminator 3 view .LVU137
 380:Core/Src/main.c ****   }
 556              		.loc 1 380 14 is_stmt 0 discriminator 3 view .LVU138
 557 0056 0135     		adds	r5, r5, #1
 558 0058 47F82450 		str	r5, [r7, r4, lsl #2]
 378:Core/Src/main.c ****     fir_out += filter_taps[firptr[i]] * firdata[i];
 559              		.loc 1 378 34 is_stmt 1 discriminator 3 view .LVU139
 560 005c 0134     		adds	r4, r4, #1
 561              	.LVL27:
 562              	.L20:
 378:Core/Src/main.c ****     fir_out += filter_taps[firptr[i]] * firdata[i];
 563              		.loc 1 378 17 discriminator 1 view .LVU140
 564 005e 042C     		cmp	r4, #4
 565 0060 D9DD     		ble	.L21
 566              	.LBE11:
 382:Core/Src/main.c ****   firptr[fir_w_ptr] = 0;
 567              		.loc 1 382 3 view .LVU141
 382:Core/Src/main.c ****   firptr[fir_w_ptr] = 0;
 568              		.loc 1 382 10 is_stmt 0 view .LVU142
 569 0062 1049     		ldr	r1, .L25+12
 570 0064 0B68     		ldr	r3, [r1]
 382:Core/Src/main.c ****   firptr[fir_w_ptr] = 0;
 571              		.loc 1 382 22 view .LVU143
 572 0066 0E4A     		ldr	r2, .L25+8
 573 0068 02EB8302 		add	r2, r2, r3, lsl #2
 574 006c 82ED008A 		vstr.32	s16, [r2]
 383:Core/Src/main.c ****   fir_w_ptr++;
 575              		.loc 1 383 3 is_stmt 1 view .LVU144
 383:Core/Src/main.c ****   fir_w_ptr++;
 576              		.loc 1 383 21 is_stmt 0 view .LVU145
 577 0070 094A     		ldr	r2, .L25
 578 0072 0020     		movs	r0, #0
ARM GAS  C:\Users\ldu08\AppData\Local\Temp\cc4QOEDi.s 			page 28


 579 0074 42F82300 		str	r0, [r2, r3, lsl #2]
 384:Core/Src/main.c ****   if (fir_w_ptr == FILTER_TAP_NUM) fir_w_ptr = 0;
 580              		.loc 1 384 3 is_stmt 1 view .LVU146
 384:Core/Src/main.c ****   if (fir_w_ptr == FILTER_TAP_NUM) fir_w_ptr = 0;
 581              		.loc 1 384 12 is_stmt 0 view .LVU147
 582 0078 0133     		adds	r3, r3, #1
 583 007a 0B60     		str	r3, [r1]
 385:Core/Src/main.c **** 
 584              		.loc 1 385 3 is_stmt 1 view .LVU148
 385:Core/Src/main.c **** 
 585              		.loc 1 385 6 is_stmt 0 view .LVU149
 586 007c 052B     		cmp	r3, #5
 587 007e 09D0     		beq	.L24
 588              	.L22:
 387:Core/Src/main.c **** }
 589              		.loc 1 387 3 is_stmt 1 view .LVU150
 388:Core/Src/main.c **** 
 590              		.loc 1 388 1 is_stmt 0 view .LVU151
 591 0080 07EE906A 		vmov	s15, r6
 592 0084 FCEEE77A 		vcvt.u32.f32	s15, s15
 593 0088 17EE900A 		vmov	r0, s15	@ int
 594 008c BDEC028B 		vldm	sp!, {d8}
 595              		.cfi_remember_state
 596              		.cfi_restore 80
 597              		.cfi_restore 81
 598              		.cfi_def_cfa_offset 32
 599              	.LVL28:
 388:Core/Src/main.c **** 
 600              		.loc 1 388 1 view .LVU152
 601 0090 BDE8F883 		pop	{r3, r4, r5, r6, r7, r8, r9, pc}
 602              	.LVL29:
 603              	.L24:
 604              		.cfi_restore_state
 385:Core/Src/main.c **** 
 605              		.loc 1 385 36 is_stmt 1 discriminator 1 view .LVU153
 385:Core/Src/main.c **** 
 606              		.loc 1 385 46 is_stmt 0 discriminator 1 view .LVU154
 607 0094 0860     		str	r0, [r1]
 608 0096 F3E7     		b	.L22
 609              	.L26:
 610              		.align	2
 611              	.L25:
 612 0098 00000000 		.word	.LANCHOR7
 613 009c 00000000 		.word	.LANCHOR8
 614 00a0 00000000 		.word	.LANCHOR9
 615 00a4 00000000 		.word	.LANCHOR10
 616              		.cfi_endproc
 617              	.LFE325:
 619              		.section	.text.process_data,"ax",%progbits
 620              		.align	1
 621              		.global	process_data
 622              		.syntax unified
 623              		.thumb
 624              		.thumb_func
 626              	process_data:
 627              	.LFB326:
 390:Core/Src/main.c ****   for (int i=0;i<HALF_BUF_SIZE;i++) {
ARM GAS  C:\Users\ldu08\AppData\Local\Temp\cc4QOEDi.s 			page 29


 628              		.loc 1 390 21 is_stmt 1 view -0
 629              		.cfi_startproc
 630              		@ args = 0, pretend = 0, frame = 0
 631              		@ frame_needed = 0, uses_anonymous_args = 0
 632 0000 10B5     		push	{r4, lr}
 633              		.cfi_def_cfa_offset 8
 634              		.cfi_offset 4, -8
 635              		.cfi_offset 14, -4
 391:Core/Src/main.c ****     //out_buf_ptr[i] = in_buf_ptr[i];
 636              		.loc 1 391 3 view .LVU156
 637              	.LBB12:
 391:Core/Src/main.c ****     //out_buf_ptr[i] = in_buf_ptr[i];
 638              		.loc 1 391 8 view .LVU157
 639              	.LVL30:
 391:Core/Src/main.c ****     //out_buf_ptr[i] = in_buf_ptr[i];
 640              		.loc 1 391 12 is_stmt 0 view .LVU158
 641 0002 0024     		movs	r4, #0
 391:Core/Src/main.c ****     //out_buf_ptr[i] = in_buf_ptr[i];
 642              		.loc 1 391 3 view .LVU159
 643 0004 15E0     		b	.L28
 644              	.LVL31:
 645              	.L29:
 646              	.LBB13:
 394:Core/Src/main.c ****     ema_lpf(in);
 647              		.loc 1 394 5 is_stmt 1 discriminator 3 view .LVU160
 394:Core/Src/main.c ****     ema_lpf(in);
 648              		.loc 1 394 35 is_stmt 0 discriminator 3 view .LVU161
 649 0006 0C4B     		ldr	r3, .L31
 650 0008 1B68     		ldr	r3, [r3]
 651 000a 03EB8403 		add	r3, r3, r4, lsl #2
 652 000e 93ED000A 		vldr.32	s0, [r3]	@ int
 653              	.LVL32:
 395:Core/Src/main.c ****     out_buf_ptr[i] = (uint32_t)(ema_out);
 654              		.loc 1 395 5 is_stmt 1 discriminator 3 view .LVU162
 655 0012 B8EE400A 		vcvt.f32.u32	s0, s0
 656              	.LVL33:
 395:Core/Src/main.c ****     out_buf_ptr[i] = (uint32_t)(ema_out);
 657              		.loc 1 395 5 is_stmt 0 discriminator 3 view .LVU163
 658 0016 FFF7FEFF 		bl	ema_lpf
 659              	.LVL34:
 396:Core/Src/main.c **** 
 660              		.loc 1 396 5 is_stmt 1 discriminator 3 view .LVU164
 396:Core/Src/main.c **** 
 661              		.loc 1 396 16 is_stmt 0 discriminator 3 view .LVU165
 662 001a 084B     		ldr	r3, .L31+4
 663 001c 1B68     		ldr	r3, [r3]
 396:Core/Src/main.c **** 
 664              		.loc 1 396 22 discriminator 3 view .LVU166
 665 001e 084A     		ldr	r2, .L31+8
 666 0020 D2ED007A 		vldr.32	s15, [r2]
 667 0024 FCEEE77A 		vcvt.u32.f32	s15, s15
 396:Core/Src/main.c **** 
 668              		.loc 1 396 20 discriminator 3 view .LVU167
 669 0028 17EE902A 		vmov	r2, s15	@ int
 670 002c 43F82420 		str	r2, [r3, r4, lsl #2]
 671              	.LBE13:
 391:Core/Src/main.c ****     //out_buf_ptr[i] = in_buf_ptr[i];
ARM GAS  C:\Users\ldu08\AppData\Local\Temp\cc4QOEDi.s 			page 30


 672              		.loc 1 391 33 is_stmt 1 discriminator 3 view .LVU168
 673 0030 0134     		adds	r4, r4, #1
 674              	.LVL35:
 675              	.L28:
 391:Core/Src/main.c ****     //out_buf_ptr[i] = in_buf_ptr[i];
 676              		.loc 1 391 17 discriminator 1 view .LVU169
 677 0032 7F2C     		cmp	r4, #127
 678 0034 E7DD     		ble	.L29
 679              	.LBE12:
 415:Core/Src/main.c **** 
 680              		.loc 1 415 1 is_stmt 0 view .LVU170
 681 0036 10BD     		pop	{r4, pc}
 682              	.LVL36:
 683              	.L32:
 415:Core/Src/main.c **** 
 684              		.loc 1 415 1 view .LVU171
 685              		.align	2
 686              	.L31:
 687 0038 00000000 		.word	.LANCHOR0
 688 003c 00000000 		.word	.LANCHOR2
 689 0040 00000000 		.word	.LANCHOR6
 690              		.cfi_endproc
 691              	.LFE326:
 693              		.section	.text.Error_Handler,"ax",%progbits
 694              		.align	1
 695              		.global	Error_Handler
 696              		.syntax unified
 697              		.thumb
 698              		.thumb_func
 700              	Error_Handler:
 701              	.LFB338:
 908:Core/Src/main.c **** 
 909:Core/Src/main.c **** /* USER CODE BEGIN 4 */
 910:Core/Src/main.c **** /* USER CODE END 4 */
 911:Core/Src/main.c **** 
 912:Core/Src/main.c **** /**
 913:Core/Src/main.c ****   * @brief  This function is executed in case of error occurrence.
 914:Core/Src/main.c ****   * @retval None
 915:Core/Src/main.c ****   */
 916:Core/Src/main.c **** void Error_Handler(void)
 917:Core/Src/main.c **** {
 702              		.loc 1 917 1 is_stmt 1 view -0
 703              		.cfi_startproc
 704              		@ Volatile: function does not return.
 705              		@ args = 0, pretend = 0, frame = 0
 706              		@ frame_needed = 0, uses_anonymous_args = 0
 707              		@ link register save eliminated.
 918:Core/Src/main.c ****   /* USER CODE BEGIN Error_Handler_Debug */
 919:Core/Src/main.c ****   /* User can add his own implementation to report the HAL error return state */
 920:Core/Src/main.c ****   __disable_irq();
 708              		.loc 1 920 3 view .LVU173
 709              	.LBB14:
 710              	.LBI14:
 711              		.file 2 "Drivers/CMSIS/Include/cmsis_gcc.h"
   1:Drivers/CMSIS/Include/cmsis_gcc.h **** /**************************************************************************//**
   2:Drivers/CMSIS/Include/cmsis_gcc.h ****  * @file     cmsis_gcc.h
   3:Drivers/CMSIS/Include/cmsis_gcc.h ****  * @brief    CMSIS compiler GCC header file
ARM GAS  C:\Users\ldu08\AppData\Local\Temp\cc4QOEDi.s 			page 31


   4:Drivers/CMSIS/Include/cmsis_gcc.h ****  * @version  V5.2.0
   5:Drivers/CMSIS/Include/cmsis_gcc.h ****  * @date     08. May 2019
   6:Drivers/CMSIS/Include/cmsis_gcc.h ****  ******************************************************************************/
   7:Drivers/CMSIS/Include/cmsis_gcc.h **** /*
   8:Drivers/CMSIS/Include/cmsis_gcc.h ****  * Copyright (c) 2009-2019 Arm Limited. All rights reserved.
   9:Drivers/CMSIS/Include/cmsis_gcc.h ****  *
  10:Drivers/CMSIS/Include/cmsis_gcc.h ****  * SPDX-License-Identifier: Apache-2.0
  11:Drivers/CMSIS/Include/cmsis_gcc.h ****  *
  12:Drivers/CMSIS/Include/cmsis_gcc.h ****  * Licensed under the Apache License, Version 2.0 (the License); you may
  13:Drivers/CMSIS/Include/cmsis_gcc.h ****  * not use this file except in compliance with the License.
  14:Drivers/CMSIS/Include/cmsis_gcc.h ****  * You may obtain a copy of the License at
  15:Drivers/CMSIS/Include/cmsis_gcc.h ****  *
  16:Drivers/CMSIS/Include/cmsis_gcc.h ****  * www.apache.org/licenses/LICENSE-2.0
  17:Drivers/CMSIS/Include/cmsis_gcc.h ****  *
  18:Drivers/CMSIS/Include/cmsis_gcc.h ****  * Unless required by applicable law or agreed to in writing, software
  19:Drivers/CMSIS/Include/cmsis_gcc.h ****  * distributed under the License is distributed on an AS IS BASIS, WITHOUT
  20:Drivers/CMSIS/Include/cmsis_gcc.h ****  * WARRANTIES OR CONDITIONS OF ANY KIND, either express or implied.
  21:Drivers/CMSIS/Include/cmsis_gcc.h ****  * See the License for the specific language governing permissions and
  22:Drivers/CMSIS/Include/cmsis_gcc.h ****  * limitations under the License.
  23:Drivers/CMSIS/Include/cmsis_gcc.h ****  */
  24:Drivers/CMSIS/Include/cmsis_gcc.h **** 
  25:Drivers/CMSIS/Include/cmsis_gcc.h **** #ifndef __CMSIS_GCC_H
  26:Drivers/CMSIS/Include/cmsis_gcc.h **** #define __CMSIS_GCC_H
  27:Drivers/CMSIS/Include/cmsis_gcc.h **** 
  28:Drivers/CMSIS/Include/cmsis_gcc.h **** /* ignore some GCC warnings */
  29:Drivers/CMSIS/Include/cmsis_gcc.h **** #pragma GCC diagnostic push
  30:Drivers/CMSIS/Include/cmsis_gcc.h **** #pragma GCC diagnostic ignored "-Wsign-conversion"
  31:Drivers/CMSIS/Include/cmsis_gcc.h **** #pragma GCC diagnostic ignored "-Wconversion"
  32:Drivers/CMSIS/Include/cmsis_gcc.h **** #pragma GCC diagnostic ignored "-Wunused-parameter"
  33:Drivers/CMSIS/Include/cmsis_gcc.h **** 
  34:Drivers/CMSIS/Include/cmsis_gcc.h **** /* Fallback for __has_builtin */
  35:Drivers/CMSIS/Include/cmsis_gcc.h **** #ifndef __has_builtin
  36:Drivers/CMSIS/Include/cmsis_gcc.h ****   #define __has_builtin(x) (0)
  37:Drivers/CMSIS/Include/cmsis_gcc.h **** #endif
  38:Drivers/CMSIS/Include/cmsis_gcc.h **** 
  39:Drivers/CMSIS/Include/cmsis_gcc.h **** /* CMSIS compiler specific defines */
  40:Drivers/CMSIS/Include/cmsis_gcc.h **** #ifndef   __ASM
  41:Drivers/CMSIS/Include/cmsis_gcc.h ****   #define __ASM                                  __asm
  42:Drivers/CMSIS/Include/cmsis_gcc.h **** #endif
  43:Drivers/CMSIS/Include/cmsis_gcc.h **** #ifndef   __INLINE
  44:Drivers/CMSIS/Include/cmsis_gcc.h ****   #define __INLINE                               inline
  45:Drivers/CMSIS/Include/cmsis_gcc.h **** #endif
  46:Drivers/CMSIS/Include/cmsis_gcc.h **** #ifndef   __STATIC_INLINE
  47:Drivers/CMSIS/Include/cmsis_gcc.h ****   #define __STATIC_INLINE                        static inline
  48:Drivers/CMSIS/Include/cmsis_gcc.h **** #endif
  49:Drivers/CMSIS/Include/cmsis_gcc.h **** #ifndef   __STATIC_FORCEINLINE                 
  50:Drivers/CMSIS/Include/cmsis_gcc.h ****   #define __STATIC_FORCEINLINE                   __attribute__((always_inline)) static inline
  51:Drivers/CMSIS/Include/cmsis_gcc.h **** #endif                                           
  52:Drivers/CMSIS/Include/cmsis_gcc.h **** #ifndef   __NO_RETURN
  53:Drivers/CMSIS/Include/cmsis_gcc.h ****   #define __NO_RETURN                            __attribute__((__noreturn__))
  54:Drivers/CMSIS/Include/cmsis_gcc.h **** #endif
  55:Drivers/CMSIS/Include/cmsis_gcc.h **** #ifndef   __USED
  56:Drivers/CMSIS/Include/cmsis_gcc.h ****   #define __USED                                 __attribute__((used))
  57:Drivers/CMSIS/Include/cmsis_gcc.h **** #endif
  58:Drivers/CMSIS/Include/cmsis_gcc.h **** #ifndef   __WEAK
  59:Drivers/CMSIS/Include/cmsis_gcc.h ****   #define __WEAK                                 __attribute__((weak))
  60:Drivers/CMSIS/Include/cmsis_gcc.h **** #endif
ARM GAS  C:\Users\ldu08\AppData\Local\Temp\cc4QOEDi.s 			page 32


  61:Drivers/CMSIS/Include/cmsis_gcc.h **** #ifndef   __PACKED
  62:Drivers/CMSIS/Include/cmsis_gcc.h ****   #define __PACKED                               __attribute__((packed, aligned(1)))
  63:Drivers/CMSIS/Include/cmsis_gcc.h **** #endif
  64:Drivers/CMSIS/Include/cmsis_gcc.h **** #ifndef   __PACKED_STRUCT
  65:Drivers/CMSIS/Include/cmsis_gcc.h ****   #define __PACKED_STRUCT                        struct __attribute__((packed, aligned(1)))
  66:Drivers/CMSIS/Include/cmsis_gcc.h **** #endif
  67:Drivers/CMSIS/Include/cmsis_gcc.h **** #ifndef   __PACKED_UNION
  68:Drivers/CMSIS/Include/cmsis_gcc.h ****   #define __PACKED_UNION                         union __attribute__((packed, aligned(1)))
  69:Drivers/CMSIS/Include/cmsis_gcc.h **** #endif
  70:Drivers/CMSIS/Include/cmsis_gcc.h **** #ifndef   __UNALIGNED_UINT32        /* deprecated */
  71:Drivers/CMSIS/Include/cmsis_gcc.h ****   #pragma GCC diagnostic push
  72:Drivers/CMSIS/Include/cmsis_gcc.h ****   #pragma GCC diagnostic ignored "-Wpacked"
  73:Drivers/CMSIS/Include/cmsis_gcc.h ****   #pragma GCC diagnostic ignored "-Wattributes"
  74:Drivers/CMSIS/Include/cmsis_gcc.h ****   struct __attribute__((packed)) T_UINT32 { uint32_t v; };
  75:Drivers/CMSIS/Include/cmsis_gcc.h ****   #pragma GCC diagnostic pop
  76:Drivers/CMSIS/Include/cmsis_gcc.h ****   #define __UNALIGNED_UINT32(x)                  (((struct T_UINT32 *)(x))->v)
  77:Drivers/CMSIS/Include/cmsis_gcc.h **** #endif
  78:Drivers/CMSIS/Include/cmsis_gcc.h **** #ifndef   __UNALIGNED_UINT16_WRITE
  79:Drivers/CMSIS/Include/cmsis_gcc.h ****   #pragma GCC diagnostic push
  80:Drivers/CMSIS/Include/cmsis_gcc.h ****   #pragma GCC diagnostic ignored "-Wpacked"
  81:Drivers/CMSIS/Include/cmsis_gcc.h ****   #pragma GCC diagnostic ignored "-Wattributes"
  82:Drivers/CMSIS/Include/cmsis_gcc.h ****   __PACKED_STRUCT T_UINT16_WRITE { uint16_t v; };
  83:Drivers/CMSIS/Include/cmsis_gcc.h ****   #pragma GCC diagnostic pop
  84:Drivers/CMSIS/Include/cmsis_gcc.h ****   #define __UNALIGNED_UINT16_WRITE(addr, val)    (void)((((struct T_UINT16_WRITE *)(void *)(addr))-
  85:Drivers/CMSIS/Include/cmsis_gcc.h **** #endif
  86:Drivers/CMSIS/Include/cmsis_gcc.h **** #ifndef   __UNALIGNED_UINT16_READ
  87:Drivers/CMSIS/Include/cmsis_gcc.h ****   #pragma GCC diagnostic push
  88:Drivers/CMSIS/Include/cmsis_gcc.h ****   #pragma GCC diagnostic ignored "-Wpacked"
  89:Drivers/CMSIS/Include/cmsis_gcc.h ****   #pragma GCC diagnostic ignored "-Wattributes"
  90:Drivers/CMSIS/Include/cmsis_gcc.h ****   __PACKED_STRUCT T_UINT16_READ { uint16_t v; };
  91:Drivers/CMSIS/Include/cmsis_gcc.h ****   #pragma GCC diagnostic pop
  92:Drivers/CMSIS/Include/cmsis_gcc.h ****   #define __UNALIGNED_UINT16_READ(addr)          (((const struct T_UINT16_READ *)(const void *)(add
  93:Drivers/CMSIS/Include/cmsis_gcc.h **** #endif
  94:Drivers/CMSIS/Include/cmsis_gcc.h **** #ifndef   __UNALIGNED_UINT32_WRITE
  95:Drivers/CMSIS/Include/cmsis_gcc.h ****   #pragma GCC diagnostic push
  96:Drivers/CMSIS/Include/cmsis_gcc.h ****   #pragma GCC diagnostic ignored "-Wpacked"
  97:Drivers/CMSIS/Include/cmsis_gcc.h ****   #pragma GCC diagnostic ignored "-Wattributes"
  98:Drivers/CMSIS/Include/cmsis_gcc.h ****   __PACKED_STRUCT T_UINT32_WRITE { uint32_t v; };
  99:Drivers/CMSIS/Include/cmsis_gcc.h ****   #pragma GCC diagnostic pop
 100:Drivers/CMSIS/Include/cmsis_gcc.h ****   #define __UNALIGNED_UINT32_WRITE(addr, val)    (void)((((struct T_UINT32_WRITE *)(void *)(addr))-
 101:Drivers/CMSIS/Include/cmsis_gcc.h **** #endif
 102:Drivers/CMSIS/Include/cmsis_gcc.h **** #ifndef   __UNALIGNED_UINT32_READ
 103:Drivers/CMSIS/Include/cmsis_gcc.h ****   #pragma GCC diagnostic push
 104:Drivers/CMSIS/Include/cmsis_gcc.h ****   #pragma GCC diagnostic ignored "-Wpacked"
 105:Drivers/CMSIS/Include/cmsis_gcc.h ****   #pragma GCC diagnostic ignored "-Wattributes"
 106:Drivers/CMSIS/Include/cmsis_gcc.h ****   __PACKED_STRUCT T_UINT32_READ { uint32_t v; };
 107:Drivers/CMSIS/Include/cmsis_gcc.h ****   #pragma GCC diagnostic pop
 108:Drivers/CMSIS/Include/cmsis_gcc.h ****   #define __UNALIGNED_UINT32_READ(addr)          (((const struct T_UINT32_READ *)(const void *)(add
 109:Drivers/CMSIS/Include/cmsis_gcc.h **** #endif
 110:Drivers/CMSIS/Include/cmsis_gcc.h **** #ifndef   __ALIGNED
 111:Drivers/CMSIS/Include/cmsis_gcc.h ****   #define __ALIGNED(x)                           __attribute__((aligned(x)))
 112:Drivers/CMSIS/Include/cmsis_gcc.h **** #endif
 113:Drivers/CMSIS/Include/cmsis_gcc.h **** #ifndef   __RESTRICT
 114:Drivers/CMSIS/Include/cmsis_gcc.h ****   #define __RESTRICT                             __restrict
 115:Drivers/CMSIS/Include/cmsis_gcc.h **** #endif
 116:Drivers/CMSIS/Include/cmsis_gcc.h **** #ifndef   __COMPILER_BARRIER
 117:Drivers/CMSIS/Include/cmsis_gcc.h ****   #define __COMPILER_BARRIER()                   __ASM volatile("":::"memory")
ARM GAS  C:\Users\ldu08\AppData\Local\Temp\cc4QOEDi.s 			page 33


 118:Drivers/CMSIS/Include/cmsis_gcc.h **** #endif
 119:Drivers/CMSIS/Include/cmsis_gcc.h **** 
 120:Drivers/CMSIS/Include/cmsis_gcc.h **** /* #########################  Startup and Lowlevel Init  ######################## */
 121:Drivers/CMSIS/Include/cmsis_gcc.h **** 
 122:Drivers/CMSIS/Include/cmsis_gcc.h **** #ifndef __PROGRAM_START
 123:Drivers/CMSIS/Include/cmsis_gcc.h **** 
 124:Drivers/CMSIS/Include/cmsis_gcc.h **** /**
 125:Drivers/CMSIS/Include/cmsis_gcc.h ****   \brief   Initializes data and bss sections
 126:Drivers/CMSIS/Include/cmsis_gcc.h ****   \details This default implementations initialized all data and additional bss
 127:Drivers/CMSIS/Include/cmsis_gcc.h ****            sections relying on .copy.table and .zero.table specified properly
 128:Drivers/CMSIS/Include/cmsis_gcc.h ****            in the used linker script.
 129:Drivers/CMSIS/Include/cmsis_gcc.h ****   
 130:Drivers/CMSIS/Include/cmsis_gcc.h ****  */
 131:Drivers/CMSIS/Include/cmsis_gcc.h **** __STATIC_FORCEINLINE __NO_RETURN void __cmsis_start(void)
 132:Drivers/CMSIS/Include/cmsis_gcc.h **** {
 133:Drivers/CMSIS/Include/cmsis_gcc.h ****   extern void _start(void) __NO_RETURN;
 134:Drivers/CMSIS/Include/cmsis_gcc.h ****   
 135:Drivers/CMSIS/Include/cmsis_gcc.h ****   typedef struct {
 136:Drivers/CMSIS/Include/cmsis_gcc.h ****     uint32_t const* src;
 137:Drivers/CMSIS/Include/cmsis_gcc.h ****     uint32_t* dest;
 138:Drivers/CMSIS/Include/cmsis_gcc.h ****     uint32_t  wlen;
 139:Drivers/CMSIS/Include/cmsis_gcc.h ****   } __copy_table_t;
 140:Drivers/CMSIS/Include/cmsis_gcc.h ****   
 141:Drivers/CMSIS/Include/cmsis_gcc.h ****   typedef struct {
 142:Drivers/CMSIS/Include/cmsis_gcc.h ****     uint32_t* dest;
 143:Drivers/CMSIS/Include/cmsis_gcc.h ****     uint32_t  wlen;
 144:Drivers/CMSIS/Include/cmsis_gcc.h ****   } __zero_table_t;
 145:Drivers/CMSIS/Include/cmsis_gcc.h ****   
 146:Drivers/CMSIS/Include/cmsis_gcc.h ****   extern const __copy_table_t __copy_table_start__;
 147:Drivers/CMSIS/Include/cmsis_gcc.h ****   extern const __copy_table_t __copy_table_end__;
 148:Drivers/CMSIS/Include/cmsis_gcc.h ****   extern const __zero_table_t __zero_table_start__;
 149:Drivers/CMSIS/Include/cmsis_gcc.h ****   extern const __zero_table_t __zero_table_end__;
 150:Drivers/CMSIS/Include/cmsis_gcc.h **** 
 151:Drivers/CMSIS/Include/cmsis_gcc.h ****   for (__copy_table_t const* pTable = &__copy_table_start__; pTable < &__copy_table_end__; ++pTable
 152:Drivers/CMSIS/Include/cmsis_gcc.h ****     for(uint32_t i=0u; i<pTable->wlen; ++i) {
 153:Drivers/CMSIS/Include/cmsis_gcc.h ****       pTable->dest[i] = pTable->src[i];
 154:Drivers/CMSIS/Include/cmsis_gcc.h ****     }
 155:Drivers/CMSIS/Include/cmsis_gcc.h ****   }
 156:Drivers/CMSIS/Include/cmsis_gcc.h ****  
 157:Drivers/CMSIS/Include/cmsis_gcc.h ****   for (__zero_table_t const* pTable = &__zero_table_start__; pTable < &__zero_table_end__; ++pTable
 158:Drivers/CMSIS/Include/cmsis_gcc.h ****     for(uint32_t i=0u; i<pTable->wlen; ++i) {
 159:Drivers/CMSIS/Include/cmsis_gcc.h ****       pTable->dest[i] = 0u;
 160:Drivers/CMSIS/Include/cmsis_gcc.h ****     }
 161:Drivers/CMSIS/Include/cmsis_gcc.h ****   }
 162:Drivers/CMSIS/Include/cmsis_gcc.h ****  
 163:Drivers/CMSIS/Include/cmsis_gcc.h ****   _start();
 164:Drivers/CMSIS/Include/cmsis_gcc.h **** }
 165:Drivers/CMSIS/Include/cmsis_gcc.h ****   
 166:Drivers/CMSIS/Include/cmsis_gcc.h **** #define __PROGRAM_START           __cmsis_start
 167:Drivers/CMSIS/Include/cmsis_gcc.h **** #endif
 168:Drivers/CMSIS/Include/cmsis_gcc.h **** 
 169:Drivers/CMSIS/Include/cmsis_gcc.h **** #ifndef __INITIAL_SP
 170:Drivers/CMSIS/Include/cmsis_gcc.h **** #define __INITIAL_SP              __StackTop
 171:Drivers/CMSIS/Include/cmsis_gcc.h **** #endif
 172:Drivers/CMSIS/Include/cmsis_gcc.h **** 
 173:Drivers/CMSIS/Include/cmsis_gcc.h **** #ifndef __STACK_LIMIT
 174:Drivers/CMSIS/Include/cmsis_gcc.h **** #define __STACK_LIMIT             __StackLimit
ARM GAS  C:\Users\ldu08\AppData\Local\Temp\cc4QOEDi.s 			page 34


 175:Drivers/CMSIS/Include/cmsis_gcc.h **** #endif
 176:Drivers/CMSIS/Include/cmsis_gcc.h **** 
 177:Drivers/CMSIS/Include/cmsis_gcc.h **** #ifndef __VECTOR_TABLE
 178:Drivers/CMSIS/Include/cmsis_gcc.h **** #define __VECTOR_TABLE            __Vectors
 179:Drivers/CMSIS/Include/cmsis_gcc.h **** #endif
 180:Drivers/CMSIS/Include/cmsis_gcc.h **** 
 181:Drivers/CMSIS/Include/cmsis_gcc.h **** #ifndef __VECTOR_TABLE_ATTRIBUTE
 182:Drivers/CMSIS/Include/cmsis_gcc.h **** #define __VECTOR_TABLE_ATTRIBUTE  __attribute((used, section(".vectors")))
 183:Drivers/CMSIS/Include/cmsis_gcc.h **** #endif
 184:Drivers/CMSIS/Include/cmsis_gcc.h **** 
 185:Drivers/CMSIS/Include/cmsis_gcc.h **** /* ###########################  Core Function Access  ########################### */
 186:Drivers/CMSIS/Include/cmsis_gcc.h **** /** \ingroup  CMSIS_Core_FunctionInterface
 187:Drivers/CMSIS/Include/cmsis_gcc.h ****     \defgroup CMSIS_Core_RegAccFunctions CMSIS Core Register Access Functions
 188:Drivers/CMSIS/Include/cmsis_gcc.h ****   @{
 189:Drivers/CMSIS/Include/cmsis_gcc.h ****  */
 190:Drivers/CMSIS/Include/cmsis_gcc.h **** 
 191:Drivers/CMSIS/Include/cmsis_gcc.h **** /**
 192:Drivers/CMSIS/Include/cmsis_gcc.h ****   \brief   Enable IRQ Interrupts
 193:Drivers/CMSIS/Include/cmsis_gcc.h ****   \details Enables IRQ interrupts by clearing the I-bit in the CPSR.
 194:Drivers/CMSIS/Include/cmsis_gcc.h ****            Can only be executed in Privileged modes.
 195:Drivers/CMSIS/Include/cmsis_gcc.h ****  */
 196:Drivers/CMSIS/Include/cmsis_gcc.h **** __STATIC_FORCEINLINE void __enable_irq(void)
 197:Drivers/CMSIS/Include/cmsis_gcc.h **** {
 198:Drivers/CMSIS/Include/cmsis_gcc.h ****   __ASM volatile ("cpsie i" : : : "memory");
 199:Drivers/CMSIS/Include/cmsis_gcc.h **** }
 200:Drivers/CMSIS/Include/cmsis_gcc.h **** 
 201:Drivers/CMSIS/Include/cmsis_gcc.h **** 
 202:Drivers/CMSIS/Include/cmsis_gcc.h **** /**
 203:Drivers/CMSIS/Include/cmsis_gcc.h ****   \brief   Disable IRQ Interrupts
 204:Drivers/CMSIS/Include/cmsis_gcc.h ****   \details Disables IRQ interrupts by setting the I-bit in the CPSR.
 205:Drivers/CMSIS/Include/cmsis_gcc.h ****            Can only be executed in Privileged modes.
 206:Drivers/CMSIS/Include/cmsis_gcc.h ****  */
 207:Drivers/CMSIS/Include/cmsis_gcc.h **** __STATIC_FORCEINLINE void __disable_irq(void)
 712              		.loc 2 207 27 view .LVU174
 713              	.LBB15:
 208:Drivers/CMSIS/Include/cmsis_gcc.h **** {
 209:Drivers/CMSIS/Include/cmsis_gcc.h ****   __ASM volatile ("cpsid i" : : : "memory");
 714              		.loc 2 209 3 view .LVU175
 715              		.syntax unified
 716              	@ 209 "Drivers/CMSIS/Include/cmsis_gcc.h" 1
 717 0000 72B6     		cpsid i
 718              	@ 0 "" 2
 719              		.thumb
 720              		.syntax unified
 721              	.L34:
 722              	.LBE15:
 723              	.LBE14:
 921:Core/Src/main.c ****   while (1)
 724              		.loc 1 921 3 discriminator 1 view .LVU176
 922:Core/Src/main.c ****   {
 923:Core/Src/main.c ****   }
 725              		.loc 1 923 3 discriminator 1 view .LVU177
 921:Core/Src/main.c ****   while (1)
 726              		.loc 1 921 9 discriminator 1 view .LVU178
 727 0002 FEE7     		b	.L34
 728              		.cfi_endproc
 729              	.LFE338:
ARM GAS  C:\Users\ldu08\AppData\Local\Temp\cc4QOEDi.s 			page 35


 731              		.section	.text.MX_DAC1_Init,"ax",%progbits
 732              		.align	1
 733              		.syntax unified
 734              		.thumb
 735              		.thumb_func
 737              	MX_DAC1_Init:
 738              	.LFB331:
 643:Core/Src/main.c **** 
 739              		.loc 1 643 1 view -0
 740              		.cfi_startproc
 741              		@ args = 0, pretend = 0, frame = 40
 742              		@ frame_needed = 0, uses_anonymous_args = 0
 743 0000 00B5     		push	{lr}
 744              		.cfi_def_cfa_offset 4
 745              		.cfi_offset 14, -4
 746 0002 8BB0     		sub	sp, sp, #44
 747              		.cfi_def_cfa_offset 48
 649:Core/Src/main.c **** 
 748              		.loc 1 649 3 view .LVU180
 649:Core/Src/main.c **** 
 749              		.loc 1 649 26 is_stmt 0 view .LVU181
 750 0004 2422     		movs	r2, #36
 751 0006 0021     		movs	r1, #0
 752 0008 01A8     		add	r0, sp, #4
 753 000a FFF7FEFF 		bl	memset
 754              	.LVL37:
 657:Core/Src/main.c ****   if (HAL_DAC_Init(&hdac1) != HAL_OK)
 755              		.loc 1 657 3 is_stmt 1 view .LVU182
 657:Core/Src/main.c ****   if (HAL_DAC_Init(&hdac1) != HAL_OK)
 756              		.loc 1 657 18 is_stmt 0 view .LVU183
 757 000e 0D48     		ldr	r0, .L41
 758 0010 0D4B     		ldr	r3, .L41+4
 759 0012 0360     		str	r3, [r0]
 658:Core/Src/main.c ****   {
 760              		.loc 1 658 3 is_stmt 1 view .LVU184
 658:Core/Src/main.c ****   {
 761              		.loc 1 658 7 is_stmt 0 view .LVU185
 762 0014 FFF7FEFF 		bl	HAL_DAC_Init
 763              	.LVL38:
 658:Core/Src/main.c ****   {
 764              		.loc 1 658 6 view .LVU186
 765 0018 78B9     		cbnz	r0, .L39
 665:Core/Src/main.c ****   sConfig.DAC_Trigger = DAC_TRIGGER_T6_TRGO;
 766              		.loc 1 665 3 is_stmt 1 view .LVU187
 665:Core/Src/main.c ****   sConfig.DAC_Trigger = DAC_TRIGGER_T6_TRGO;
 767              		.loc 1 665 29 is_stmt 0 view .LVU188
 768 001a 0022     		movs	r2, #0
 769 001c 0192     		str	r2, [sp, #4]
 666:Core/Src/main.c ****   sConfig.DAC_OutputBuffer = DAC_OUTPUTBUFFER_ENABLE;
 770              		.loc 1 666 3 is_stmt 1 view .LVU189
 666:Core/Src/main.c ****   sConfig.DAC_OutputBuffer = DAC_OUTPUTBUFFER_ENABLE;
 771              		.loc 1 666 23 is_stmt 0 view .LVU190
 772 001e 0423     		movs	r3, #4
 773 0020 0293     		str	r3, [sp, #8]
 667:Core/Src/main.c ****   sConfig.DAC_ConnectOnChipPeripheral = DAC_CHIPCONNECT_DISABLE;
 774              		.loc 1 667 3 is_stmt 1 view .LVU191
 667:Core/Src/main.c ****   sConfig.DAC_ConnectOnChipPeripheral = DAC_CHIPCONNECT_DISABLE;
ARM GAS  C:\Users\ldu08\AppData\Local\Temp\cc4QOEDi.s 			page 36


 775              		.loc 1 667 28 is_stmt 0 view .LVU192
 776 0022 0392     		str	r2, [sp, #12]
 668:Core/Src/main.c ****   sConfig.DAC_UserTrimming = DAC_TRIMMING_FACTORY;
 777              		.loc 1 668 3 is_stmt 1 view .LVU193
 668:Core/Src/main.c ****   sConfig.DAC_UserTrimming = DAC_TRIMMING_FACTORY;
 778              		.loc 1 668 39 is_stmt 0 view .LVU194
 779 0024 0492     		str	r2, [sp, #16]
 669:Core/Src/main.c ****   if (HAL_DAC_ConfigChannel(&hdac1, &sConfig, DAC_CHANNEL_1) != HAL_OK)
 780              		.loc 1 669 3 is_stmt 1 view .LVU195
 669:Core/Src/main.c ****   if (HAL_DAC_ConfigChannel(&hdac1, &sConfig, DAC_CHANNEL_1) != HAL_OK)
 781              		.loc 1 669 28 is_stmt 0 view .LVU196
 782 0026 0592     		str	r2, [sp, #20]
 670:Core/Src/main.c ****   {
 783              		.loc 1 670 3 is_stmt 1 view .LVU197
 670:Core/Src/main.c ****   {
 784              		.loc 1 670 7 is_stmt 0 view .LVU198
 785 0028 0DEB0301 		add	r1, sp, r3
 786 002c 0548     		ldr	r0, .L41
 787 002e FFF7FEFF 		bl	HAL_DAC_ConfigChannel
 788              	.LVL39:
 670:Core/Src/main.c ****   {
 789              		.loc 1 670 6 view .LVU199
 790 0032 20B9     		cbnz	r0, .L40
 678:Core/Src/main.c **** 
 791              		.loc 1 678 1 view .LVU200
 792 0034 0BB0     		add	sp, sp, #44
 793              		.cfi_remember_state
 794              		.cfi_def_cfa_offset 4
 795              		@ sp needed
 796 0036 5DF804FB 		ldr	pc, [sp], #4
 797              	.L39:
 798              		.cfi_restore_state
 660:Core/Src/main.c ****   }
 799              		.loc 1 660 5 is_stmt 1 view .LVU201
 800 003a FFF7FEFF 		bl	Error_Handler
 801              	.LVL40:
 802              	.L40:
 672:Core/Src/main.c ****   }
 803              		.loc 1 672 5 view .LVU202
 804 003e FFF7FEFF 		bl	Error_Handler
 805              	.LVL41:
 806              	.L42:
 807 0042 00BF     		.align	2
 808              	.L41:
 809 0044 00000000 		.word	.LANCHOR11
 810 0048 00740040 		.word	1073771520
 811              		.cfi_endproc
 812              	.LFE331:
 814              		.section	.text.MX_LPUART1_UART_Init,"ax",%progbits
 815              		.align	1
 816              		.syntax unified
 817              		.thumb
 818              		.thumb_func
 820              	MX_LPUART1_UART_Init:
 821              	.LFB332:
 686:Core/Src/main.c **** 
 822              		.loc 1 686 1 view -0
ARM GAS  C:\Users\ldu08\AppData\Local\Temp\cc4QOEDi.s 			page 37


 823              		.cfi_startproc
 824              		@ args = 0, pretend = 0, frame = 0
 825              		@ frame_needed = 0, uses_anonymous_args = 0
 826 0000 08B5     		push	{r3, lr}
 827              		.cfi_def_cfa_offset 8
 828              		.cfi_offset 3, -8
 829              		.cfi_offset 14, -4
 695:Core/Src/main.c ****   hlpuart1.Init.BaudRate = 209700;
 830              		.loc 1 695 3 view .LVU204
 695:Core/Src/main.c ****   hlpuart1.Init.BaudRate = 209700;
 831              		.loc 1 695 21 is_stmt 0 view .LVU205
 832 0002 0B48     		ldr	r0, .L47
 833 0004 0B4B     		ldr	r3, .L47+4
 834 0006 0360     		str	r3, [r0]
 696:Core/Src/main.c ****   hlpuart1.Init.WordLength = UART_WORDLENGTH_7B;
 835              		.loc 1 696 3 is_stmt 1 view .LVU206
 696:Core/Src/main.c ****   hlpuart1.Init.WordLength = UART_WORDLENGTH_7B;
 836              		.loc 1 696 26 is_stmt 0 view .LVU207
 837 0008 0B4B     		ldr	r3, .L47+8
 838 000a 4360     		str	r3, [r0, #4]
 697:Core/Src/main.c ****   hlpuart1.Init.StopBits = UART_STOPBITS_1;
 839              		.loc 1 697 3 is_stmt 1 view .LVU208
 697:Core/Src/main.c ****   hlpuart1.Init.StopBits = UART_STOPBITS_1;
 840              		.loc 1 697 28 is_stmt 0 view .LVU209
 841 000c 4FF08053 		mov	r3, #268435456
 842 0010 8360     		str	r3, [r0, #8]
 698:Core/Src/main.c ****   hlpuart1.Init.Parity = UART_PARITY_NONE;
 843              		.loc 1 698 3 is_stmt 1 view .LVU210
 698:Core/Src/main.c ****   hlpuart1.Init.Parity = UART_PARITY_NONE;
 844              		.loc 1 698 26 is_stmt 0 view .LVU211
 845 0012 0023     		movs	r3, #0
 846 0014 C360     		str	r3, [r0, #12]
 699:Core/Src/main.c ****   hlpuart1.Init.Mode = UART_MODE_TX_RX;
 847              		.loc 1 699 3 is_stmt 1 view .LVU212
 699:Core/Src/main.c ****   hlpuart1.Init.Mode = UART_MODE_TX_RX;
 848              		.loc 1 699 24 is_stmt 0 view .LVU213
 849 0016 0361     		str	r3, [r0, #16]
 700:Core/Src/main.c ****   hlpuart1.Init.HwFlowCtl = UART_HWCONTROL_NONE;
 850              		.loc 1 700 3 is_stmt 1 view .LVU214
 700:Core/Src/main.c ****   hlpuart1.Init.HwFlowCtl = UART_HWCONTROL_NONE;
 851              		.loc 1 700 22 is_stmt 0 view .LVU215
 852 0018 0C22     		movs	r2, #12
 853 001a 4261     		str	r2, [r0, #20]
 701:Core/Src/main.c ****   hlpuart1.Init.OneBitSampling = UART_ONE_BIT_SAMPLE_DISABLE;
 854              		.loc 1 701 3 is_stmt 1 view .LVU216
 701:Core/Src/main.c ****   hlpuart1.Init.OneBitSampling = UART_ONE_BIT_SAMPLE_DISABLE;
 855              		.loc 1 701 27 is_stmt 0 view .LVU217
 856 001c 8361     		str	r3, [r0, #24]
 702:Core/Src/main.c ****   hlpuart1.AdvancedInit.AdvFeatureInit = UART_ADVFEATURE_NO_INIT;
 857              		.loc 1 702 3 is_stmt 1 view .LVU218
 702:Core/Src/main.c ****   hlpuart1.AdvancedInit.AdvFeatureInit = UART_ADVFEATURE_NO_INIT;
 858              		.loc 1 702 32 is_stmt 0 view .LVU219
 859 001e 0362     		str	r3, [r0, #32]
 703:Core/Src/main.c ****   if (HAL_UART_Init(&hlpuart1) != HAL_OK)
 860              		.loc 1 703 3 is_stmt 1 view .LVU220
 703:Core/Src/main.c ****   if (HAL_UART_Init(&hlpuart1) != HAL_OK)
 861              		.loc 1 703 40 is_stmt 0 view .LVU221
ARM GAS  C:\Users\ldu08\AppData\Local\Temp\cc4QOEDi.s 			page 38


 862 0020 4362     		str	r3, [r0, #36]
 704:Core/Src/main.c ****   {
 863              		.loc 1 704 3 is_stmt 1 view .LVU222
 704:Core/Src/main.c ****   {
 864              		.loc 1 704 7 is_stmt 0 view .LVU223
 865 0022 FFF7FEFF 		bl	HAL_UART_Init
 866              	.LVL42:
 704:Core/Src/main.c ****   {
 867              		.loc 1 704 6 view .LVU224
 868 0026 00B9     		cbnz	r0, .L46
 712:Core/Src/main.c **** 
 869              		.loc 1 712 1 view .LVU225
 870 0028 08BD     		pop	{r3, pc}
 871              	.L46:
 706:Core/Src/main.c ****   }
 872              		.loc 1 706 5 is_stmt 1 view .LVU226
 873 002a FFF7FEFF 		bl	Error_Handler
 874              	.LVL43:
 875              	.L48:
 876 002e 00BF     		.align	2
 877              	.L47:
 878 0030 00000000 		.word	.LANCHOR12
 879 0034 00800040 		.word	1073774592
 880 0038 24330300 		.word	209700
 881              		.cfi_endproc
 882              	.LFE332:
 884              		.section	.text.MX_USB_OTG_FS_PCD_Init,"ax",%progbits
 885              		.align	1
 886              		.syntax unified
 887              		.thumb
 888              		.thumb_func
 890              	MX_USB_OTG_FS_PCD_Init:
 891              	.LFB335:
 796:Core/Src/main.c **** 
 892              		.loc 1 796 1 view -0
 893              		.cfi_startproc
 894              		@ args = 0, pretend = 0, frame = 0
 895              		@ frame_needed = 0, uses_anonymous_args = 0
 896 0000 08B5     		push	{r3, lr}
 897              		.cfi_def_cfa_offset 8
 898              		.cfi_offset 3, -8
 899              		.cfi_offset 14, -4
 805:Core/Src/main.c ****   hpcd_USB_OTG_FS.Init.dev_endpoints = 6;
 900              		.loc 1 805 3 view .LVU228
 805:Core/Src/main.c ****   hpcd_USB_OTG_FS.Init.dev_endpoints = 6;
 901              		.loc 1 805 28 is_stmt 0 view .LVU229
 902 0002 0B48     		ldr	r0, .L53
 903 0004 4FF0A043 		mov	r3, #1342177280
 904 0008 0360     		str	r3, [r0]
 806:Core/Src/main.c ****   hpcd_USB_OTG_FS.Init.speed = PCD_SPEED_FULL;
 905              		.loc 1 806 3 is_stmt 1 view .LVU230
 806:Core/Src/main.c ****   hpcd_USB_OTG_FS.Init.speed = PCD_SPEED_FULL;
 906              		.loc 1 806 38 is_stmt 0 view .LVU231
 907 000a 0623     		movs	r3, #6
 908 000c 4360     		str	r3, [r0, #4]
 807:Core/Src/main.c ****   hpcd_USB_OTG_FS.Init.phy_itface = PCD_PHY_EMBEDDED;
 909              		.loc 1 807 3 is_stmt 1 view .LVU232
ARM GAS  C:\Users\ldu08\AppData\Local\Temp\cc4QOEDi.s 			page 39


 807:Core/Src/main.c ****   hpcd_USB_OTG_FS.Init.phy_itface = PCD_PHY_EMBEDDED;
 910              		.loc 1 807 30 is_stmt 0 view .LVU233
 911 000e 0223     		movs	r3, #2
 912 0010 0361     		str	r3, [r0, #16]
 808:Core/Src/main.c ****   hpcd_USB_OTG_FS.Init.Sof_enable = ENABLE;
 913              		.loc 1 808 3 is_stmt 1 view .LVU234
 808:Core/Src/main.c ****   hpcd_USB_OTG_FS.Init.Sof_enable = ENABLE;
 914              		.loc 1 808 35 is_stmt 0 view .LVU235
 915 0012 8361     		str	r3, [r0, #24]
 809:Core/Src/main.c ****   hpcd_USB_OTG_FS.Init.low_power_enable = DISABLE;
 916              		.loc 1 809 3 is_stmt 1 view .LVU236
 809:Core/Src/main.c ****   hpcd_USB_OTG_FS.Init.low_power_enable = DISABLE;
 917              		.loc 1 809 35 is_stmt 0 view .LVU237
 918 0014 0123     		movs	r3, #1
 919 0016 C361     		str	r3, [r0, #28]
 810:Core/Src/main.c ****   hpcd_USB_OTG_FS.Init.lpm_enable = DISABLE;
 920              		.loc 1 810 3 is_stmt 1 view .LVU238
 810:Core/Src/main.c ****   hpcd_USB_OTG_FS.Init.lpm_enable = DISABLE;
 921              		.loc 1 810 41 is_stmt 0 view .LVU239
 922 0018 0022     		movs	r2, #0
 923 001a 0262     		str	r2, [r0, #32]
 811:Core/Src/main.c ****   hpcd_USB_OTG_FS.Init.battery_charging_enable = ENABLE;
 924              		.loc 1 811 3 is_stmt 1 view .LVU240
 811:Core/Src/main.c ****   hpcd_USB_OTG_FS.Init.battery_charging_enable = ENABLE;
 925              		.loc 1 811 35 is_stmt 0 view .LVU241
 926 001c 4262     		str	r2, [r0, #36]
 812:Core/Src/main.c ****   hpcd_USB_OTG_FS.Init.use_dedicated_ep1 = DISABLE;
 927              		.loc 1 812 3 is_stmt 1 view .LVU242
 812:Core/Src/main.c ****   hpcd_USB_OTG_FS.Init.use_dedicated_ep1 = DISABLE;
 928              		.loc 1 812 48 is_stmt 0 view .LVU243
 929 001e 8362     		str	r3, [r0, #40]
 813:Core/Src/main.c ****   hpcd_USB_OTG_FS.Init.vbus_sensing_enable = ENABLE;
 930              		.loc 1 813 3 is_stmt 1 view .LVU244
 813:Core/Src/main.c ****   hpcd_USB_OTG_FS.Init.vbus_sensing_enable = ENABLE;
 931              		.loc 1 813 42 is_stmt 0 view .LVU245
 932 0020 0263     		str	r2, [r0, #48]
 814:Core/Src/main.c ****   if (HAL_PCD_Init(&hpcd_USB_OTG_FS) != HAL_OK)
 933              		.loc 1 814 3 is_stmt 1 view .LVU246
 814:Core/Src/main.c ****   if (HAL_PCD_Init(&hpcd_USB_OTG_FS) != HAL_OK)
 934              		.loc 1 814 44 is_stmt 0 view .LVU247
 935 0022 C362     		str	r3, [r0, #44]
 815:Core/Src/main.c ****   {
 936              		.loc 1 815 3 is_stmt 1 view .LVU248
 815:Core/Src/main.c ****   {
 937              		.loc 1 815 7 is_stmt 0 view .LVU249
 938 0024 FFF7FEFF 		bl	HAL_PCD_Init
 939              	.LVL44:
 815:Core/Src/main.c ****   {
 940              		.loc 1 815 6 view .LVU250
 941 0028 00B9     		cbnz	r0, .L52
 823:Core/Src/main.c **** 
 942              		.loc 1 823 1 view .LVU251
 943 002a 08BD     		pop	{r3, pc}
 944              	.L52:
 817:Core/Src/main.c ****   }
 945              		.loc 1 817 5 is_stmt 1 view .LVU252
 946 002c FFF7FEFF 		bl	Error_Handler
ARM GAS  C:\Users\ldu08\AppData\Local\Temp\cc4QOEDi.s 			page 40


 947              	.LVL45:
 948              	.L54:
 949              		.align	2
 950              	.L53:
 951 0030 00000000 		.word	.LANCHOR13
 952              		.cfi_endproc
 953              	.LFE335:
 955              		.section	.text.MX_ADC1_Init,"ax",%progbits
 956              		.align	1
 957              		.syntax unified
 958              		.thumb
 959              		.thumb_func
 961              	MX_ADC1_Init:
 962              	.LFB330:
 576:Core/Src/main.c **** 
 963              		.loc 1 576 1 view -0
 964              		.cfi_startproc
 965              		@ args = 0, pretend = 0, frame = 40
 966              		@ frame_needed = 0, uses_anonymous_args = 0
 967 0000 00B5     		push	{lr}
 968              		.cfi_def_cfa_offset 4
 969              		.cfi_offset 14, -4
 970 0002 8BB0     		sub	sp, sp, #44
 971              		.cfi_def_cfa_offset 48
 582:Core/Src/main.c ****   ADC_ChannelConfTypeDef sConfig = {0};
 972              		.loc 1 582 3 view .LVU254
 582:Core/Src/main.c ****   ADC_ChannelConfTypeDef sConfig = {0};
 973              		.loc 1 582 24 is_stmt 0 view .LVU255
 974 0004 0023     		movs	r3, #0
 975 0006 0793     		str	r3, [sp, #28]
 976 0008 0893     		str	r3, [sp, #32]
 977 000a 0993     		str	r3, [sp, #36]
 583:Core/Src/main.c **** 
 978              		.loc 1 583 3 is_stmt 1 view .LVU256
 583:Core/Src/main.c **** 
 979              		.loc 1 583 26 is_stmt 0 view .LVU257
 980 000c 0193     		str	r3, [sp, #4]
 981 000e 0293     		str	r3, [sp, #8]
 982 0010 0393     		str	r3, [sp, #12]
 983 0012 0493     		str	r3, [sp, #16]
 984 0014 0593     		str	r3, [sp, #20]
 985 0016 0693     		str	r3, [sp, #24]
 591:Core/Src/main.c ****   hadc1.Init.ClockPrescaler = ADC_CLOCK_ASYNC_DIV1;
 986              		.loc 1 591 3 is_stmt 1 view .LVU258
 591:Core/Src/main.c ****   hadc1.Init.ClockPrescaler = ADC_CLOCK_ASYNC_DIV1;
 987              		.loc 1 591 18 is_stmt 0 view .LVU259
 988 0018 1E48     		ldr	r0, .L63
 989 001a 1F4A     		ldr	r2, .L63+4
 990 001c 0260     		str	r2, [r0]
 592:Core/Src/main.c ****   hadc1.Init.Resolution = ADC_RESOLUTION_12B;
 991              		.loc 1 592 3 is_stmt 1 view .LVU260
 592:Core/Src/main.c ****   hadc1.Init.Resolution = ADC_RESOLUTION_12B;
 992              		.loc 1 592 29 is_stmt 0 view .LVU261
 993 001e 4360     		str	r3, [r0, #4]
 593:Core/Src/main.c ****   hadc1.Init.DataAlign = ADC_DATAALIGN_RIGHT;
 994              		.loc 1 593 3 is_stmt 1 view .LVU262
 593:Core/Src/main.c ****   hadc1.Init.DataAlign = ADC_DATAALIGN_RIGHT;
ARM GAS  C:\Users\ldu08\AppData\Local\Temp\cc4QOEDi.s 			page 41


 995              		.loc 1 593 25 is_stmt 0 view .LVU263
 996 0020 8360     		str	r3, [r0, #8]
 594:Core/Src/main.c ****   hadc1.Init.ScanConvMode = ADC_SCAN_DISABLE;
 997              		.loc 1 594 3 is_stmt 1 view .LVU264
 594:Core/Src/main.c ****   hadc1.Init.ScanConvMode = ADC_SCAN_DISABLE;
 998              		.loc 1 594 24 is_stmt 0 view .LVU265
 999 0022 C360     		str	r3, [r0, #12]
 595:Core/Src/main.c ****   hadc1.Init.EOCSelection = ADC_EOC_SINGLE_CONV;
 1000              		.loc 1 595 3 is_stmt 1 view .LVU266
 595:Core/Src/main.c ****   hadc1.Init.EOCSelection = ADC_EOC_SINGLE_CONV;
 1001              		.loc 1 595 27 is_stmt 0 view .LVU267
 1002 0024 0361     		str	r3, [r0, #16]
 596:Core/Src/main.c ****   hadc1.Init.LowPowerAutoWait = DISABLE;
 1003              		.loc 1 596 3 is_stmt 1 view .LVU268
 596:Core/Src/main.c ****   hadc1.Init.LowPowerAutoWait = DISABLE;
 1004              		.loc 1 596 27 is_stmt 0 view .LVU269
 1005 0026 0422     		movs	r2, #4
 1006 0028 4261     		str	r2, [r0, #20]
 597:Core/Src/main.c ****   hadc1.Init.ContinuousConvMode = DISABLE;
 1007              		.loc 1 597 3 is_stmt 1 view .LVU270
 597:Core/Src/main.c ****   hadc1.Init.ContinuousConvMode = DISABLE;
 1008              		.loc 1 597 31 is_stmt 0 view .LVU271
 1009 002a 0376     		strb	r3, [r0, #24]
 598:Core/Src/main.c ****   hadc1.Init.NbrOfConversion = 1;
 1010              		.loc 1 598 3 is_stmt 1 view .LVU272
 598:Core/Src/main.c ****   hadc1.Init.NbrOfConversion = 1;
 1011              		.loc 1 598 33 is_stmt 0 view .LVU273
 1012 002c 4376     		strb	r3, [r0, #25]
 599:Core/Src/main.c ****   hadc1.Init.DiscontinuousConvMode = DISABLE;
 1013              		.loc 1 599 3 is_stmt 1 view .LVU274
 599:Core/Src/main.c ****   hadc1.Init.DiscontinuousConvMode = DISABLE;
 1014              		.loc 1 599 30 is_stmt 0 view .LVU275
 1015 002e 0122     		movs	r2, #1
 1016 0030 C261     		str	r2, [r0, #28]
 600:Core/Src/main.c ****   hadc1.Init.ExternalTrigConv = ADC_EXTERNALTRIG_T6_TRGO;
 1017              		.loc 1 600 3 is_stmt 1 view .LVU276
 600:Core/Src/main.c ****   hadc1.Init.ExternalTrigConv = ADC_EXTERNALTRIG_T6_TRGO;
 1018              		.loc 1 600 36 is_stmt 0 view .LVU277
 1019 0032 80F82030 		strb	r3, [r0, #32]
 601:Core/Src/main.c ****   hadc1.Init.ExternalTrigConvEdge = ADC_EXTERNALTRIGCONVEDGE_RISING;
 1020              		.loc 1 601 3 is_stmt 1 view .LVU278
 601:Core/Src/main.c ****   hadc1.Init.ExternalTrigConvEdge = ADC_EXTERNALTRIGCONVEDGE_RISING;
 1021              		.loc 1 601 31 is_stmt 0 view .LVU279
 1022 0036 4FF4E861 		mov	r1, #1856
 1023 003a 8162     		str	r1, [r0, #40]
 602:Core/Src/main.c ****   hadc1.Init.DMAContinuousRequests = ENABLE;
 1024              		.loc 1 602 3 is_stmt 1 view .LVU280
 602:Core/Src/main.c ****   hadc1.Init.DMAContinuousRequests = ENABLE;
 1025              		.loc 1 602 35 is_stmt 0 view .LVU281
 1026 003c 4FF48061 		mov	r1, #1024
 1027 0040 C162     		str	r1, [r0, #44]
 603:Core/Src/main.c ****   hadc1.Init.Overrun = ADC_OVR_DATA_PRESERVED;
 1028              		.loc 1 603 3 is_stmt 1 view .LVU282
 603:Core/Src/main.c ****   hadc1.Init.Overrun = ADC_OVR_DATA_PRESERVED;
 1029              		.loc 1 603 36 is_stmt 0 view .LVU283
 1030 0042 80F83020 		strb	r2, [r0, #48]
 604:Core/Src/main.c ****   hadc1.Init.OversamplingMode = DISABLE;
ARM GAS  C:\Users\ldu08\AppData\Local\Temp\cc4QOEDi.s 			page 42


 1031              		.loc 1 604 3 is_stmt 1 view .LVU284
 604:Core/Src/main.c ****   hadc1.Init.OversamplingMode = DISABLE;
 1032              		.loc 1 604 22 is_stmt 0 view .LVU285
 1033 0046 4363     		str	r3, [r0, #52]
 605:Core/Src/main.c ****   if (HAL_ADC_Init(&hadc1) != HAL_OK)
 1034              		.loc 1 605 3 is_stmt 1 view .LVU286
 605:Core/Src/main.c ****   if (HAL_ADC_Init(&hadc1) != HAL_OK)
 1035              		.loc 1 605 31 is_stmt 0 view .LVU287
 1036 0048 80F83830 		strb	r3, [r0, #56]
 606:Core/Src/main.c ****   {
 1037              		.loc 1 606 3 is_stmt 1 view .LVU288
 606:Core/Src/main.c ****   {
 1038              		.loc 1 606 7 is_stmt 0 view .LVU289
 1039 004c FFF7FEFF 		bl	HAL_ADC_Init
 1040              	.LVL46:
 606:Core/Src/main.c ****   {
 1041              		.loc 1 606 6 view .LVU290
 1042 0050 D0B9     		cbnz	r0, .L60
 613:Core/Src/main.c ****   if (HAL_ADCEx_MultiModeConfigChannel(&hadc1, &multimode) != HAL_OK)
 1043              		.loc 1 613 3 is_stmt 1 view .LVU291
 613:Core/Src/main.c ****   if (HAL_ADCEx_MultiModeConfigChannel(&hadc1, &multimode) != HAL_OK)
 1044              		.loc 1 613 18 is_stmt 0 view .LVU292
 1045 0052 0023     		movs	r3, #0
 1046 0054 0793     		str	r3, [sp, #28]
 614:Core/Src/main.c ****   {
 1047              		.loc 1 614 3 is_stmt 1 view .LVU293
 614:Core/Src/main.c ****   {
 1048              		.loc 1 614 7 is_stmt 0 view .LVU294
 1049 0056 07A9     		add	r1, sp, #28
 1050 0058 0E48     		ldr	r0, .L63
 1051 005a FFF7FEFF 		bl	HAL_ADCEx_MultiModeConfigChannel
 1052              	.LVL47:
 614:Core/Src/main.c ****   {
 1053              		.loc 1 614 6 view .LVU295
 1054 005e A8B9     		cbnz	r0, .L61
 621:Core/Src/main.c ****   sConfig.Rank = ADC_REGULAR_RANK_1;
 1055              		.loc 1 621 3 is_stmt 1 view .LVU296
 621:Core/Src/main.c ****   sConfig.Rank = ADC_REGULAR_RANK_1;
 1056              		.loc 1 621 19 is_stmt 0 view .LVU297
 1057 0060 0E4B     		ldr	r3, .L63+8
 1058 0062 0193     		str	r3, [sp, #4]
 622:Core/Src/main.c ****   sConfig.SamplingTime = ADC_SAMPLETIME_2CYCLES_5;
 1059              		.loc 1 622 3 is_stmt 1 view .LVU298
 622:Core/Src/main.c ****   sConfig.SamplingTime = ADC_SAMPLETIME_2CYCLES_5;
 1060              		.loc 1 622 16 is_stmt 0 view .LVU299
 1061 0064 0623     		movs	r3, #6
 1062 0066 0293     		str	r3, [sp, #8]
 623:Core/Src/main.c ****   sConfig.SingleDiff = ADC_SINGLE_ENDED;
 1063              		.loc 1 623 3 is_stmt 1 view .LVU300
 623:Core/Src/main.c ****   sConfig.SingleDiff = ADC_SINGLE_ENDED;
 1064              		.loc 1 623 24 is_stmt 0 view .LVU301
 1065 0068 0023     		movs	r3, #0
 1066 006a 0393     		str	r3, [sp, #12]
 624:Core/Src/main.c ****   sConfig.OffsetNumber = ADC_OFFSET_NONE;
 1067              		.loc 1 624 3 is_stmt 1 view .LVU302
 624:Core/Src/main.c ****   sConfig.OffsetNumber = ADC_OFFSET_NONE;
 1068              		.loc 1 624 22 is_stmt 0 view .LVU303
ARM GAS  C:\Users\ldu08\AppData\Local\Temp\cc4QOEDi.s 			page 43


 1069 006c 7F22     		movs	r2, #127
 1070 006e 0492     		str	r2, [sp, #16]
 625:Core/Src/main.c ****   sConfig.Offset = 0;
 1071              		.loc 1 625 3 is_stmt 1 view .LVU304
 625:Core/Src/main.c ****   sConfig.Offset = 0;
 1072              		.loc 1 625 24 is_stmt 0 view .LVU305
 1073 0070 0422     		movs	r2, #4
 1074 0072 0592     		str	r2, [sp, #20]
 626:Core/Src/main.c ****   if (HAL_ADC_ConfigChannel(&hadc1, &sConfig) != HAL_OK)
 1075              		.loc 1 626 3 is_stmt 1 view .LVU306
 626:Core/Src/main.c ****   if (HAL_ADC_ConfigChannel(&hadc1, &sConfig) != HAL_OK)
 1076              		.loc 1 626 18 is_stmt 0 view .LVU307
 1077 0074 0693     		str	r3, [sp, #24]
 627:Core/Src/main.c ****   {
 1078              		.loc 1 627 3 is_stmt 1 view .LVU308
 627:Core/Src/main.c ****   {
 1079              		.loc 1 627 7 is_stmt 0 view .LVU309
 1080 0076 0DEB0201 		add	r1, sp, r2
 1081 007a 0648     		ldr	r0, .L63
 1082 007c FFF7FEFF 		bl	HAL_ADC_ConfigChannel
 1083              	.LVL48:
 627:Core/Src/main.c ****   {
 1084              		.loc 1 627 6 view .LVU310
 1085 0080 30B9     		cbnz	r0, .L62
 635:Core/Src/main.c **** 
 1086              		.loc 1 635 1 view .LVU311
 1087 0082 0BB0     		add	sp, sp, #44
 1088              		.cfi_remember_state
 1089              		.cfi_def_cfa_offset 4
 1090              		@ sp needed
 1091 0084 5DF804FB 		ldr	pc, [sp], #4
 1092              	.L60:
 1093              		.cfi_restore_state
 608:Core/Src/main.c ****   }
 1094              		.loc 1 608 5 is_stmt 1 view .LVU312
 1095 0088 FFF7FEFF 		bl	Error_Handler
 1096              	.LVL49:
 1097              	.L61:
 616:Core/Src/main.c ****   }
 1098              		.loc 1 616 5 view .LVU313
 1099 008c FFF7FEFF 		bl	Error_Handler
 1100              	.LVL50:
 1101              	.L62:
 629:Core/Src/main.c ****   }
 1102              		.loc 1 629 5 view .LVU314
 1103 0090 FFF7FEFF 		bl	Error_Handler
 1104              	.LVL51:
 1105              	.L64:
 1106              		.align	2
 1107              	.L63:
 1108 0094 00000000 		.word	.LANCHOR14
 1109 0098 00000450 		.word	1342439424
 1110 009c 02003004 		.word	70254594
 1111              		.cfi_endproc
 1112              	.LFE330:
 1114              		.section	.text.MX_TIM6_Init,"ax",%progbits
 1115              		.align	1
ARM GAS  C:\Users\ldu08\AppData\Local\Temp\cc4QOEDi.s 			page 44


 1116              		.syntax unified
 1117              		.thumb
 1118              		.thumb_func
 1120              	MX_TIM6_Init:
 1121              	.LFB333:
 720:Core/Src/main.c **** 
 1122              		.loc 1 720 1 view -0
 1123              		.cfi_startproc
 1124              		@ args = 0, pretend = 0, frame = 16
 1125              		@ frame_needed = 0, uses_anonymous_args = 0
 1126 0000 00B5     		push	{lr}
 1127              		.cfi_def_cfa_offset 4
 1128              		.cfi_offset 14, -4
 1129 0002 85B0     		sub	sp, sp, #20
 1130              		.cfi_def_cfa_offset 24
 726:Core/Src/main.c **** 
 1131              		.loc 1 726 3 view .LVU316
 726:Core/Src/main.c **** 
 1132              		.loc 1 726 27 is_stmt 0 view .LVU317
 1133 0004 0023     		movs	r3, #0
 1134 0006 0193     		str	r3, [sp, #4]
 1135 0008 0293     		str	r3, [sp, #8]
 1136 000a 0393     		str	r3, [sp, #12]
 731:Core/Src/main.c ****   htim6.Init.Prescaler = 0;
 1137              		.loc 1 731 3 is_stmt 1 view .LVU318
 731:Core/Src/main.c ****   htim6.Init.Prescaler = 0;
 1138              		.loc 1 731 18 is_stmt 0 view .LVU319
 1139 000c 0D48     		ldr	r0, .L71
 1140 000e 0E4A     		ldr	r2, .L71+4
 1141 0010 0260     		str	r2, [r0]
 732:Core/Src/main.c ****   htim6.Init.CounterMode = TIM_COUNTERMODE_UP;
 1142              		.loc 1 732 3 is_stmt 1 view .LVU320
 732:Core/Src/main.c ****   htim6.Init.CounterMode = TIM_COUNTERMODE_UP;
 1143              		.loc 1 732 24 is_stmt 0 view .LVU321
 1144 0012 4360     		str	r3, [r0, #4]
 733:Core/Src/main.c ****   htim6.Init.Period = 400;
 1145              		.loc 1 733 3 is_stmt 1 view .LVU322
 733:Core/Src/main.c ****   htim6.Init.Period = 400;
 1146              		.loc 1 733 26 is_stmt 0 view .LVU323
 1147 0014 8360     		str	r3, [r0, #8]
 734:Core/Src/main.c ****   htim6.Init.AutoReloadPreload = TIM_AUTORELOAD_PRELOAD_DISABLE;
 1148              		.loc 1 734 3 is_stmt 1 view .LVU324
 734:Core/Src/main.c ****   htim6.Init.AutoReloadPreload = TIM_AUTORELOAD_PRELOAD_DISABLE;
 1149              		.loc 1 734 21 is_stmt 0 view .LVU325
 1150 0016 4FF4C872 		mov	r2, #400
 1151 001a C260     		str	r2, [r0, #12]
 735:Core/Src/main.c ****   if (HAL_TIM_Base_Init(&htim6) != HAL_OK)
 1152              		.loc 1 735 3 is_stmt 1 view .LVU326
 735:Core/Src/main.c ****   if (HAL_TIM_Base_Init(&htim6) != HAL_OK)
 1153              		.loc 1 735 32 is_stmt 0 view .LVU327
 1154 001c 8361     		str	r3, [r0, #24]
 736:Core/Src/main.c ****   {
 1155              		.loc 1 736 3 is_stmt 1 view .LVU328
 736:Core/Src/main.c ****   {
 1156              		.loc 1 736 7 is_stmt 0 view .LVU329
 1157 001e FFF7FEFF 		bl	HAL_TIM_Base_Init
 1158              	.LVL52:
ARM GAS  C:\Users\ldu08\AppData\Local\Temp\cc4QOEDi.s 			page 45


 736:Core/Src/main.c ****   {
 1159              		.loc 1 736 6 view .LVU330
 1160 0022 58B9     		cbnz	r0, .L69
 740:Core/Src/main.c ****   sMasterConfig.MasterSlaveMode = TIM_MASTERSLAVEMODE_DISABLE;
 1161              		.loc 1 740 3 is_stmt 1 view .LVU331
 740:Core/Src/main.c ****   sMasterConfig.MasterSlaveMode = TIM_MASTERSLAVEMODE_DISABLE;
 1162              		.loc 1 740 37 is_stmt 0 view .LVU332
 1163 0024 2023     		movs	r3, #32
 1164 0026 0193     		str	r3, [sp, #4]
 741:Core/Src/main.c ****   if (HAL_TIMEx_MasterConfigSynchronization(&htim6, &sMasterConfig) != HAL_OK)
 1165              		.loc 1 741 3 is_stmt 1 view .LVU333
 741:Core/Src/main.c ****   if (HAL_TIMEx_MasterConfigSynchronization(&htim6, &sMasterConfig) != HAL_OK)
 1166              		.loc 1 741 33 is_stmt 0 view .LVU334
 1167 0028 0023     		movs	r3, #0
 1168 002a 0393     		str	r3, [sp, #12]
 742:Core/Src/main.c ****   {
 1169              		.loc 1 742 3 is_stmt 1 view .LVU335
 742:Core/Src/main.c ****   {
 1170              		.loc 1 742 7 is_stmt 0 view .LVU336
 1171 002c 01A9     		add	r1, sp, #4
 1172 002e 0548     		ldr	r0, .L71
 1173 0030 FFF7FEFF 		bl	HAL_TIMEx_MasterConfigSynchronization
 1174              	.LVL53:
 742:Core/Src/main.c ****   {
 1175              		.loc 1 742 6 view .LVU337
 1176 0034 20B9     		cbnz	r0, .L70
 750:Core/Src/main.c **** 
 1177              		.loc 1 750 1 view .LVU338
 1178 0036 05B0     		add	sp, sp, #20
 1179              		.cfi_remember_state
 1180              		.cfi_def_cfa_offset 4
 1181              		@ sp needed
 1182 0038 5DF804FB 		ldr	pc, [sp], #4
 1183              	.L69:
 1184              		.cfi_restore_state
 738:Core/Src/main.c ****   }
 1185              		.loc 1 738 5 is_stmt 1 view .LVU339
 1186 003c FFF7FEFF 		bl	Error_Handler
 1187              	.LVL54:
 1188              	.L70:
 744:Core/Src/main.c ****   }
 1189              		.loc 1 744 5 view .LVU340
 1190 0040 FFF7FEFF 		bl	Error_Handler
 1191              	.LVL55:
 1192              	.L72:
 1193              		.align	2
 1194              	.L71:
 1195 0044 00000000 		.word	.LANCHOR15
 1196 0048 00100040 		.word	1073745920
 1197              		.cfi_endproc
 1198              	.LFE333:
 1200              		.section	.text.MX_TIM7_Init,"ax",%progbits
 1201              		.align	1
 1202              		.syntax unified
 1203              		.thumb
 1204              		.thumb_func
 1206              	MX_TIM7_Init:
ARM GAS  C:\Users\ldu08\AppData\Local\Temp\cc4QOEDi.s 			page 46


 1207              	.LFB334:
 758:Core/Src/main.c **** 
 1208              		.loc 1 758 1 view -0
 1209              		.cfi_startproc
 1210              		@ args = 0, pretend = 0, frame = 16
 1211              		@ frame_needed = 0, uses_anonymous_args = 0
 1212 0000 00B5     		push	{lr}
 1213              		.cfi_def_cfa_offset 4
 1214              		.cfi_offset 14, -4
 1215 0002 85B0     		sub	sp, sp, #20
 1216              		.cfi_def_cfa_offset 24
 764:Core/Src/main.c **** 
 1217              		.loc 1 764 3 view .LVU342
 764:Core/Src/main.c **** 
 1218              		.loc 1 764 27 is_stmt 0 view .LVU343
 1219 0004 0023     		movs	r3, #0
 1220 0006 0193     		str	r3, [sp, #4]
 1221 0008 0293     		str	r3, [sp, #8]
 1222 000a 0393     		str	r3, [sp, #12]
 769:Core/Src/main.c ****   htim7.Init.Prescaler = 0;
 1223              		.loc 1 769 3 is_stmt 1 view .LVU344
 769:Core/Src/main.c ****   htim7.Init.Prescaler = 0;
 1224              		.loc 1 769 18 is_stmt 0 view .LVU345
 1225 000c 0D48     		ldr	r0, .L79
 1226 000e 0E4A     		ldr	r2, .L79+4
 1227 0010 0260     		str	r2, [r0]
 770:Core/Src/main.c ****   htim7.Init.CounterMode = TIM_COUNTERMODE_UP;
 1228              		.loc 1 770 3 is_stmt 1 view .LVU346
 770:Core/Src/main.c ****   htim7.Init.CounterMode = TIM_COUNTERMODE_UP;
 1229              		.loc 1 770 24 is_stmt 0 view .LVU347
 1230 0012 4360     		str	r3, [r0, #4]
 771:Core/Src/main.c ****   htim7.Init.Period = 10000;
 1231              		.loc 1 771 3 is_stmt 1 view .LVU348
 771:Core/Src/main.c ****   htim7.Init.Period = 10000;
 1232              		.loc 1 771 26 is_stmt 0 view .LVU349
 1233 0014 8360     		str	r3, [r0, #8]
 772:Core/Src/main.c ****   htim7.Init.AutoReloadPreload = TIM_AUTORELOAD_PRELOAD_DISABLE;
 1234              		.loc 1 772 3 is_stmt 1 view .LVU350
 772:Core/Src/main.c ****   htim7.Init.AutoReloadPreload = TIM_AUTORELOAD_PRELOAD_DISABLE;
 1235              		.loc 1 772 21 is_stmt 0 view .LVU351
 1236 0016 42F21072 		movw	r2, #10000
 1237 001a C260     		str	r2, [r0, #12]
 773:Core/Src/main.c ****   if (HAL_TIM_Base_Init(&htim7) != HAL_OK)
 1238              		.loc 1 773 3 is_stmt 1 view .LVU352
 773:Core/Src/main.c ****   if (HAL_TIM_Base_Init(&htim7) != HAL_OK)
 1239              		.loc 1 773 32 is_stmt 0 view .LVU353
 1240 001c 8361     		str	r3, [r0, #24]
 774:Core/Src/main.c ****   {
 1241              		.loc 1 774 3 is_stmt 1 view .LVU354
 774:Core/Src/main.c ****   {
 1242              		.loc 1 774 7 is_stmt 0 view .LVU355
 1243 001e FFF7FEFF 		bl	HAL_TIM_Base_Init
 1244              	.LVL56:
 774:Core/Src/main.c ****   {
 1245              		.loc 1 774 6 view .LVU356
 1246 0022 50B9     		cbnz	r0, .L77
 778:Core/Src/main.c ****   sMasterConfig.MasterSlaveMode = TIM_MASTERSLAVEMODE_DISABLE;
ARM GAS  C:\Users\ldu08\AppData\Local\Temp\cc4QOEDi.s 			page 47


 1247              		.loc 1 778 3 is_stmt 1 view .LVU357
 778:Core/Src/main.c ****   sMasterConfig.MasterSlaveMode = TIM_MASTERSLAVEMODE_DISABLE;
 1248              		.loc 1 778 37 is_stmt 0 view .LVU358
 1249 0024 0023     		movs	r3, #0
 1250 0026 0193     		str	r3, [sp, #4]
 779:Core/Src/main.c ****   if (HAL_TIMEx_MasterConfigSynchronization(&htim7, &sMasterConfig) != HAL_OK)
 1251              		.loc 1 779 3 is_stmt 1 view .LVU359
 779:Core/Src/main.c ****   if (HAL_TIMEx_MasterConfigSynchronization(&htim7, &sMasterConfig) != HAL_OK)
 1252              		.loc 1 779 33 is_stmt 0 view .LVU360
 1253 0028 0393     		str	r3, [sp, #12]
 780:Core/Src/main.c ****   {
 1254              		.loc 1 780 3 is_stmt 1 view .LVU361
 780:Core/Src/main.c ****   {
 1255              		.loc 1 780 7 is_stmt 0 view .LVU362
 1256 002a 01A9     		add	r1, sp, #4
 1257 002c 0548     		ldr	r0, .L79
 1258 002e FFF7FEFF 		bl	HAL_TIMEx_MasterConfigSynchronization
 1259              	.LVL57:
 780:Core/Src/main.c ****   {
 1260              		.loc 1 780 6 view .LVU363
 1261 0032 20B9     		cbnz	r0, .L78
 788:Core/Src/main.c **** 
 1262              		.loc 1 788 1 view .LVU364
 1263 0034 05B0     		add	sp, sp, #20
 1264              		.cfi_remember_state
 1265              		.cfi_def_cfa_offset 4
 1266              		@ sp needed
 1267 0036 5DF804FB 		ldr	pc, [sp], #4
 1268              	.L77:
 1269              		.cfi_restore_state
 776:Core/Src/main.c ****   }
 1270              		.loc 1 776 5 is_stmt 1 view .LVU365
 1271 003a FFF7FEFF 		bl	Error_Handler
 1272              	.LVL58:
 1273              	.L78:
 782:Core/Src/main.c ****   }
 1274              		.loc 1 782 5 view .LVU366
 1275 003e FFF7FEFF 		bl	Error_Handler
 1276              	.LVL59:
 1277              	.L80:
 1278 0042 00BF     		.align	2
 1279              	.L79:
 1280 0044 00000000 		.word	.LANCHOR16
 1281 0048 00140040 		.word	1073746944
 1282              		.cfi_endproc
 1283              	.LFE334:
 1285              		.section	.text.SystemClock_Config,"ax",%progbits
 1286              		.align	1
 1287              		.global	SystemClock_Config
 1288              		.syntax unified
 1289              		.thumb
 1290              		.thumb_func
 1292              	SystemClock_Config:
 1293              	.LFB328:
 489:Core/Src/main.c ****   RCC_OscInitTypeDef RCC_OscInitStruct = {0};
 1294              		.loc 1 489 1 view -0
 1295              		.cfi_startproc
ARM GAS  C:\Users\ldu08\AppData\Local\Temp\cc4QOEDi.s 			page 48


 1296              		@ args = 0, pretend = 0, frame = 88
 1297              		@ frame_needed = 0, uses_anonymous_args = 0
 1298 0000 00B5     		push	{lr}
 1299              		.cfi_def_cfa_offset 4
 1300              		.cfi_offset 14, -4
 1301 0002 97B0     		sub	sp, sp, #92
 1302              		.cfi_def_cfa_offset 96
 490:Core/Src/main.c ****   RCC_ClkInitTypeDef RCC_ClkInitStruct = {0};
 1303              		.loc 1 490 3 view .LVU368
 490:Core/Src/main.c ****   RCC_ClkInitTypeDef RCC_ClkInitStruct = {0};
 1304              		.loc 1 490 22 is_stmt 0 view .LVU369
 1305 0004 4422     		movs	r2, #68
 1306 0006 0021     		movs	r1, #0
 1307 0008 05A8     		add	r0, sp, #20
 1308 000a FFF7FEFF 		bl	memset
 1309              	.LVL60:
 491:Core/Src/main.c **** 
 1310              		.loc 1 491 3 is_stmt 1 view .LVU370
 491:Core/Src/main.c **** 
 1311              		.loc 1 491 22 is_stmt 0 view .LVU371
 1312 000e 0023     		movs	r3, #0
 1313 0010 0093     		str	r3, [sp]
 1314 0012 0193     		str	r3, [sp, #4]
 1315 0014 0293     		str	r3, [sp, #8]
 1316 0016 0393     		str	r3, [sp, #12]
 1317 0018 0493     		str	r3, [sp, #16]
 495:Core/Src/main.c ****   {
 1318              		.loc 1 495 3 is_stmt 1 view .LVU372
 495:Core/Src/main.c ****   {
 1319              		.loc 1 495 7 is_stmt 0 view .LVU373
 1320 001a 4FF40070 		mov	r0, #512
 1321 001e FFF7FEFF 		bl	HAL_PWREx_ControlVoltageScaling
 1322              	.LVL61:
 495:Core/Src/main.c ****   {
 1323              		.loc 1 495 6 view .LVU374
 1324 0022 0028     		cmp	r0, #0
 1325 0024 33D1     		bne	.L86
 502:Core/Src/main.c ****   __HAL_RCC_LSEDRIVE_CONFIG(RCC_LSEDRIVE_LOW);
 1326              		.loc 1 502 3 is_stmt 1 view .LVU375
 1327 0026 FFF7FEFF 		bl	HAL_PWR_EnableBkUpAccess
 1328              	.LVL62:
 503:Core/Src/main.c **** 
 1329              		.loc 1 503 3 view .LVU376
 1330 002a 1C4A     		ldr	r2, .L89
 1331 002c D2F89030 		ldr	r3, [r2, #144]
 1332 0030 23F01803 		bic	r3, r3, #24
 1333 0034 C2F89030 		str	r3, [r2, #144]
 508:Core/Src/main.c ****   RCC_OscInitStruct.LSEState = RCC_LSE_ON;
 1334              		.loc 1 508 3 view .LVU377
 508:Core/Src/main.c ****   RCC_OscInitStruct.LSEState = RCC_LSE_ON;
 1335              		.loc 1 508 36 is_stmt 0 view .LVU378
 1336 0038 1423     		movs	r3, #20
 1337 003a 0593     		str	r3, [sp, #20]
 509:Core/Src/main.c ****   RCC_OscInitStruct.MSIState = RCC_MSI_ON;
 1338              		.loc 1 509 3 is_stmt 1 view .LVU379
 509:Core/Src/main.c ****   RCC_OscInitStruct.MSIState = RCC_MSI_ON;
 1339              		.loc 1 509 30 is_stmt 0 view .LVU380
ARM GAS  C:\Users\ldu08\AppData\Local\Temp\cc4QOEDi.s 			page 49


 1340 003c 0123     		movs	r3, #1
 1341 003e 0793     		str	r3, [sp, #28]
 510:Core/Src/main.c ****   RCC_OscInitStruct.MSICalibrationValue = 0;
 1342              		.loc 1 510 3 is_stmt 1 view .LVU381
 510:Core/Src/main.c ****   RCC_OscInitStruct.MSICalibrationValue = 0;
 1343              		.loc 1 510 30 is_stmt 0 view .LVU382
 1344 0040 0B93     		str	r3, [sp, #44]
 511:Core/Src/main.c ****   RCC_OscInitStruct.MSIClockRange = RCC_MSIRANGE_6;
 1345              		.loc 1 511 3 is_stmt 1 view .LVU383
 511:Core/Src/main.c ****   RCC_OscInitStruct.MSIClockRange = RCC_MSIRANGE_6;
 1346              		.loc 1 511 41 is_stmt 0 view .LVU384
 1347 0042 0022     		movs	r2, #0
 1348 0044 0C92     		str	r2, [sp, #48]
 512:Core/Src/main.c ****   RCC_OscInitStruct.PLL.PLLState = RCC_PLL_ON;
 1349              		.loc 1 512 3 is_stmt 1 view .LVU385
 512:Core/Src/main.c ****   RCC_OscInitStruct.PLL.PLLState = RCC_PLL_ON;
 1350              		.loc 1 512 35 is_stmt 0 view .LVU386
 1351 0046 6022     		movs	r2, #96
 1352 0048 0D92     		str	r2, [sp, #52]
 513:Core/Src/main.c ****   RCC_OscInitStruct.PLL.PLLSource = RCC_PLLSOURCE_MSI;
 1353              		.loc 1 513 3 is_stmt 1 view .LVU387
 513:Core/Src/main.c ****   RCC_OscInitStruct.PLL.PLLSource = RCC_PLLSOURCE_MSI;
 1354              		.loc 1 513 34 is_stmt 0 view .LVU388
 1355 004a 0222     		movs	r2, #2
 1356 004c 0F92     		str	r2, [sp, #60]
 514:Core/Src/main.c ****   RCC_OscInitStruct.PLL.PLLM = 1;
 1357              		.loc 1 514 3 is_stmt 1 view .LVU389
 514:Core/Src/main.c ****   RCC_OscInitStruct.PLL.PLLM = 1;
 1358              		.loc 1 514 35 is_stmt 0 view .LVU390
 1359 004e 1093     		str	r3, [sp, #64]
 515:Core/Src/main.c ****   RCC_OscInitStruct.PLL.PLLN = 80;
 1360              		.loc 1 515 3 is_stmt 1 view .LVU391
 515:Core/Src/main.c ****   RCC_OscInitStruct.PLL.PLLN = 80;
 1361              		.loc 1 515 30 is_stmt 0 view .LVU392
 1362 0050 1193     		str	r3, [sp, #68]
 516:Core/Src/main.c ****   RCC_OscInitStruct.PLL.PLLP = RCC_PLLP_DIV2;
 1363              		.loc 1 516 3 is_stmt 1 view .LVU393
 516:Core/Src/main.c ****   RCC_OscInitStruct.PLL.PLLP = RCC_PLLP_DIV2;
 1364              		.loc 1 516 30 is_stmt 0 view .LVU394
 1365 0052 5023     		movs	r3, #80
 1366 0054 1293     		str	r3, [sp, #72]
 517:Core/Src/main.c ****   RCC_OscInitStruct.PLL.PLLQ = RCC_PLLQ_DIV2;
 1367              		.loc 1 517 3 is_stmt 1 view .LVU395
 517:Core/Src/main.c ****   RCC_OscInitStruct.PLL.PLLQ = RCC_PLLQ_DIV2;
 1368              		.loc 1 517 30 is_stmt 0 view .LVU396
 1369 0056 1392     		str	r2, [sp, #76]
 518:Core/Src/main.c ****   RCC_OscInitStruct.PLL.PLLR = RCC_PLLR_DIV4;
 1370              		.loc 1 518 3 is_stmt 1 view .LVU397
 518:Core/Src/main.c ****   RCC_OscInitStruct.PLL.PLLR = RCC_PLLR_DIV4;
 1371              		.loc 1 518 30 is_stmt 0 view .LVU398
 1372 0058 1492     		str	r2, [sp, #80]
 519:Core/Src/main.c ****   if (HAL_RCC_OscConfig(&RCC_OscInitStruct) != HAL_OK)
 1373              		.loc 1 519 3 is_stmt 1 view .LVU399
 519:Core/Src/main.c ****   if (HAL_RCC_OscConfig(&RCC_OscInitStruct) != HAL_OK)
 1374              		.loc 1 519 30 is_stmt 0 view .LVU400
 1375 005a 0423     		movs	r3, #4
 1376 005c 1593     		str	r3, [sp, #84]
ARM GAS  C:\Users\ldu08\AppData\Local\Temp\cc4QOEDi.s 			page 50


 520:Core/Src/main.c ****   {
 1377              		.loc 1 520 3 is_stmt 1 view .LVU401
 520:Core/Src/main.c ****   {
 1378              		.loc 1 520 7 is_stmt 0 view .LVU402
 1379 005e 05A8     		add	r0, sp, #20
 1380 0060 FFF7FEFF 		bl	HAL_RCC_OscConfig
 1381              	.LVL63:
 520:Core/Src/main.c ****   {
 1382              		.loc 1 520 6 view .LVU403
 1383 0064 A8B9     		cbnz	r0, .L87
 527:Core/Src/main.c ****                               |RCC_CLOCKTYPE_PCLK1|RCC_CLOCKTYPE_PCLK2;
 1384              		.loc 1 527 3 is_stmt 1 view .LVU404
 527:Core/Src/main.c ****                               |RCC_CLOCKTYPE_PCLK1|RCC_CLOCKTYPE_PCLK2;
 1385              		.loc 1 527 31 is_stmt 0 view .LVU405
 1386 0066 0F23     		movs	r3, #15
 1387 0068 0093     		str	r3, [sp]
 529:Core/Src/main.c ****   RCC_ClkInitStruct.AHBCLKDivider = RCC_SYSCLK_DIV1;
 1388              		.loc 1 529 3 is_stmt 1 view .LVU406
 529:Core/Src/main.c ****   RCC_ClkInitStruct.AHBCLKDivider = RCC_SYSCLK_DIV1;
 1389              		.loc 1 529 34 is_stmt 0 view .LVU407
 1390 006a 0323     		movs	r3, #3
 1391 006c 0193     		str	r3, [sp, #4]
 530:Core/Src/main.c ****   RCC_ClkInitStruct.APB1CLKDivider = RCC_HCLK_DIV2;
 1392              		.loc 1 530 3 is_stmt 1 view .LVU408
 530:Core/Src/main.c ****   RCC_ClkInitStruct.APB1CLKDivider = RCC_HCLK_DIV2;
 1393              		.loc 1 530 35 is_stmt 0 view .LVU409
 1394 006e 0023     		movs	r3, #0
 1395 0070 0293     		str	r3, [sp, #8]
 531:Core/Src/main.c ****   RCC_ClkInitStruct.APB2CLKDivider = RCC_HCLK_DIV1;
 1396              		.loc 1 531 3 is_stmt 1 view .LVU410
 531:Core/Src/main.c ****   RCC_ClkInitStruct.APB2CLKDivider = RCC_HCLK_DIV1;
 1397              		.loc 1 531 36 is_stmt 0 view .LVU411
 1398 0072 4FF48062 		mov	r2, #1024
 1399 0076 0392     		str	r2, [sp, #12]
 532:Core/Src/main.c **** 
 1400              		.loc 1 532 3 is_stmt 1 view .LVU412
 532:Core/Src/main.c **** 
 1401              		.loc 1 532 36 is_stmt 0 view .LVU413
 1402 0078 0493     		str	r3, [sp, #16]
 534:Core/Src/main.c ****   {
 1403              		.loc 1 534 3 is_stmt 1 view .LVU414
 534:Core/Src/main.c ****   {
 1404              		.loc 1 534 7 is_stmt 0 view .LVU415
 1405 007a 0421     		movs	r1, #4
 1406 007c 6846     		mov	r0, sp
 1407 007e FFF7FEFF 		bl	HAL_RCC_ClockConfig
 1408              	.LVL64:
 534:Core/Src/main.c ****   {
 1409              		.loc 1 534 6 view .LVU416
 1410 0082 40B9     		cbnz	r0, .L88
 541:Core/Src/main.c **** }
 1411              		.loc 1 541 3 is_stmt 1 view .LVU417
 1412 0084 FFF7FEFF 		bl	HAL_RCCEx_EnableMSIPLLMode
 1413              	.LVL65:
 542:Core/Src/main.c **** 
 1414              		.loc 1 542 1 is_stmt 0 view .LVU418
 1415 0088 17B0     		add	sp, sp, #92
ARM GAS  C:\Users\ldu08\AppData\Local\Temp\cc4QOEDi.s 			page 51


 1416              		.cfi_remember_state
 1417              		.cfi_def_cfa_offset 4
 1418              		@ sp needed
 1419 008a 5DF804FB 		ldr	pc, [sp], #4
 1420              	.L86:
 1421              		.cfi_restore_state
 497:Core/Src/main.c ****   }
 1422              		.loc 1 497 5 is_stmt 1 view .LVU419
 1423 008e FFF7FEFF 		bl	Error_Handler
 1424              	.LVL66:
 1425              	.L87:
 522:Core/Src/main.c ****   }
 1426              		.loc 1 522 5 view .LVU420
 1427 0092 FFF7FEFF 		bl	Error_Handler
 1428              	.LVL67:
 1429              	.L88:
 536:Core/Src/main.c ****   }
 1430              		.loc 1 536 5 view .LVU421
 1431 0096 FFF7FEFF 		bl	Error_Handler
 1432              	.LVL68:
 1433              	.L90:
 1434 009a 00BF     		.align	2
 1435              	.L89:
 1436 009c 00100240 		.word	1073876992
 1437              		.cfi_endproc
 1438              	.LFE328:
 1440              		.section	.text.PeriphCommonClock_Config,"ax",%progbits
 1441              		.align	1
 1442              		.global	PeriphCommonClock_Config
 1443              		.syntax unified
 1444              		.thumb
 1445              		.thumb_func
 1447              	PeriphCommonClock_Config:
 1448              	.LFB329:
 549:Core/Src/main.c ****   RCC_PeriphCLKInitTypeDef PeriphClkInit = {0};
 1449              		.loc 1 549 1 view -0
 1450              		.cfi_startproc
 1451              		@ args = 0, pretend = 0, frame = 144
 1452              		@ frame_needed = 0, uses_anonymous_args = 0
 1453 0000 00B5     		push	{lr}
 1454              		.cfi_def_cfa_offset 4
 1455              		.cfi_offset 14, -4
 1456 0002 A5B0     		sub	sp, sp, #148
 1457              		.cfi_def_cfa_offset 152
 550:Core/Src/main.c **** 
 1458              		.loc 1 550 3 view .LVU423
 550:Core/Src/main.c **** 
 1459              		.loc 1 550 28 is_stmt 0 view .LVU424
 1460 0004 8C22     		movs	r2, #140
 1461 0006 0021     		movs	r1, #0
 1462 0008 01A8     		add	r0, sp, #4
 1463 000a FFF7FEFF 		bl	memset
 1464              	.LVL69:
 554:Core/Src/main.c ****   PeriphClkInit.AdcClockSelection = RCC_ADCCLKSOURCE_PLLSAI1;
 1465              		.loc 1 554 3 is_stmt 1 view .LVU425
 554:Core/Src/main.c ****   PeriphClkInit.AdcClockSelection = RCC_ADCCLKSOURCE_PLLSAI1;
 1466              		.loc 1 554 38 is_stmt 0 view .LVU426
ARM GAS  C:\Users\ldu08\AppData\Local\Temp\cc4QOEDi.s 			page 52


 1467 000e 4FF4C043 		mov	r3, #24576
 1468 0012 0193     		str	r3, [sp, #4]
 555:Core/Src/main.c ****   PeriphClkInit.UsbClockSelection = RCC_USBCLKSOURCE_PLLSAI1;
 1469              		.loc 1 555 3 is_stmt 1 view .LVU427
 555:Core/Src/main.c ****   PeriphClkInit.UsbClockSelection = RCC_USBCLKSOURCE_PLLSAI1;
 1470              		.loc 1 555 35 is_stmt 0 view .LVU428
 1471 0014 4FF08053 		mov	r3, #268435456
 1472 0018 2093     		str	r3, [sp, #128]
 556:Core/Src/main.c ****   PeriphClkInit.PLLSAI1.PLLSAI1Source = RCC_PLLSOURCE_MSI;
 1473              		.loc 1 556 3 is_stmt 1 view .LVU429
 556:Core/Src/main.c ****   PeriphClkInit.PLLSAI1.PLLSAI1Source = RCC_PLLSOURCE_MSI;
 1474              		.loc 1 556 35 is_stmt 0 view .LVU430
 1475 001a 4FF08063 		mov	r3, #67108864
 1476 001e 1D93     		str	r3, [sp, #116]
 557:Core/Src/main.c ****   PeriphClkInit.PLLSAI1.PLLSAI1M = 1;
 1477              		.loc 1 557 3 is_stmt 1 view .LVU431
 557:Core/Src/main.c ****   PeriphClkInit.PLLSAI1.PLLSAI1M = 1;
 1478              		.loc 1 557 39 is_stmt 0 view .LVU432
 1479 0020 0123     		movs	r3, #1
 1480 0022 0293     		str	r3, [sp, #8]
 558:Core/Src/main.c ****   PeriphClkInit.PLLSAI1.PLLSAI1N = 24;
 1481              		.loc 1 558 3 is_stmt 1 view .LVU433
 558:Core/Src/main.c ****   PeriphClkInit.PLLSAI1.PLLSAI1N = 24;
 1482              		.loc 1 558 34 is_stmt 0 view .LVU434
 1483 0024 0393     		str	r3, [sp, #12]
 559:Core/Src/main.c ****   PeriphClkInit.PLLSAI1.PLLSAI1P = RCC_PLLP_DIV2;
 1484              		.loc 1 559 3 is_stmt 1 view .LVU435
 559:Core/Src/main.c ****   PeriphClkInit.PLLSAI1.PLLSAI1P = RCC_PLLP_DIV2;
 1485              		.loc 1 559 34 is_stmt 0 view .LVU436
 1486 0026 1823     		movs	r3, #24
 1487 0028 0493     		str	r3, [sp, #16]
 560:Core/Src/main.c ****   PeriphClkInit.PLLSAI1.PLLSAI1Q = RCC_PLLQ_DIV2;
 1488              		.loc 1 560 3 is_stmt 1 view .LVU437
 560:Core/Src/main.c ****   PeriphClkInit.PLLSAI1.PLLSAI1Q = RCC_PLLQ_DIV2;
 1489              		.loc 1 560 34 is_stmt 0 view .LVU438
 1490 002a 0223     		movs	r3, #2
 1491 002c 0593     		str	r3, [sp, #20]
 561:Core/Src/main.c ****   PeriphClkInit.PLLSAI1.PLLSAI1R = RCC_PLLR_DIV2;
 1492              		.loc 1 561 3 is_stmt 1 view .LVU439
 561:Core/Src/main.c ****   PeriphClkInit.PLLSAI1.PLLSAI1R = RCC_PLLR_DIV2;
 1493              		.loc 1 561 34 is_stmt 0 view .LVU440
 1494 002e 0693     		str	r3, [sp, #24]
 562:Core/Src/main.c ****   PeriphClkInit.PLLSAI1.PLLSAI1ClockOut = RCC_PLLSAI1_48M2CLK|RCC_PLLSAI1_ADC1CLK;
 1495              		.loc 1 562 3 is_stmt 1 view .LVU441
 562:Core/Src/main.c ****   PeriphClkInit.PLLSAI1.PLLSAI1ClockOut = RCC_PLLSAI1_48M2CLK|RCC_PLLSAI1_ADC1CLK;
 1496              		.loc 1 562 34 is_stmt 0 view .LVU442
 1497 0030 0793     		str	r3, [sp, #28]
 563:Core/Src/main.c ****   if (HAL_RCCEx_PeriphCLKConfig(&PeriphClkInit) != HAL_OK)
 1498              		.loc 1 563 3 is_stmt 1 view .LVU443
 563:Core/Src/main.c ****   if (HAL_RCCEx_PeriphCLKConfig(&PeriphClkInit) != HAL_OK)
 1499              		.loc 1 563 41 is_stmt 0 view .LVU444
 1500 0032 4FF08873 		mov	r3, #17825792
 1501 0036 0893     		str	r3, [sp, #32]
 564:Core/Src/main.c ****   {
 1502              		.loc 1 564 3 is_stmt 1 view .LVU445
 564:Core/Src/main.c ****   {
 1503              		.loc 1 564 7 is_stmt 0 view .LVU446
ARM GAS  C:\Users\ldu08\AppData\Local\Temp\cc4QOEDi.s 			page 53


 1504 0038 01A8     		add	r0, sp, #4
 1505 003a FFF7FEFF 		bl	HAL_RCCEx_PeriphCLKConfig
 1506              	.LVL70:
 564:Core/Src/main.c ****   {
 1507              		.loc 1 564 6 view .LVU447
 1508 003e 10B9     		cbnz	r0, .L94
 568:Core/Src/main.c **** 
 1509              		.loc 1 568 1 view .LVU448
 1510 0040 25B0     		add	sp, sp, #148
 1511              		.cfi_remember_state
 1512              		.cfi_def_cfa_offset 4
 1513              		@ sp needed
 1514 0042 5DF804FB 		ldr	pc, [sp], #4
 1515              	.L94:
 1516              		.cfi_restore_state
 566:Core/Src/main.c ****   }
 1517              		.loc 1 566 5 is_stmt 1 view .LVU449
 1518 0046 FFF7FEFF 		bl	Error_Handler
 1519              	.LVL71:
 1520              		.cfi_endproc
 1521              	.LFE329:
 1523              		.section	.text.main,"ax",%progbits
 1524              		.align	1
 1525              		.global	main
 1526              		.syntax unified
 1527              		.thumb
 1528              		.thumb_func
 1530              	main:
 1531              	.LFB327:
 424:Core/Src/main.c ****   /* USER CODE BEGIN 1 */
 1532              		.loc 1 424 1 view -0
 1533              		.cfi_startproc
 1534              		@ Volatile: function does not return.
 1535              		@ args = 0, pretend = 0, frame = 0
 1536              		@ frame_needed = 0, uses_anonymous_args = 0
 1537 0000 00B5     		push	{lr}
 1538              		.cfi_def_cfa_offset 4
 1539              		.cfi_offset 14, -4
 1540 0002 83B0     		sub	sp, sp, #12
 1541              		.cfi_def_cfa_offset 16
 432:Core/Src/main.c **** 
 1542              		.loc 1 432 3 view .LVU451
 1543 0004 FFF7FEFF 		bl	HAL_Init
 1544              	.LVL72:
 439:Core/Src/main.c **** 
 1545              		.loc 1 439 3 view .LVU452
 1546 0008 FFF7FEFF 		bl	SystemClock_Config
 1547              	.LVL73:
 442:Core/Src/main.c **** 
 1548              		.loc 1 442 3 view .LVU453
 1549 000c FFF7FEFF 		bl	PeriphCommonClock_Config
 1550              	.LVL74:
 449:Core/Src/main.c ****   MX_DMA_Init();
 1551              		.loc 1 449 3 view .LVU454
 1552 0010 FFF7FEFF 		bl	MX_GPIO_Init
 1553              	.LVL75:
 450:Core/Src/main.c ****   MX_DAC1_Init();
ARM GAS  C:\Users\ldu08\AppData\Local\Temp\cc4QOEDi.s 			page 54


 1554              		.loc 1 450 3 view .LVU455
 1555 0014 FFF7FEFF 		bl	MX_DMA_Init
 1556              	.LVL76:
 451:Core/Src/main.c ****   MX_LPUART1_UART_Init();
 1557              		.loc 1 451 3 view .LVU456
 1558 0018 FFF7FEFF 		bl	MX_DAC1_Init
 1559              	.LVL77:
 452:Core/Src/main.c ****   MX_USB_OTG_FS_PCD_Init();
 1560              		.loc 1 452 3 view .LVU457
 1561 001c FFF7FEFF 		bl	MX_LPUART1_UART_Init
 1562              	.LVL78:
 453:Core/Src/main.c ****   MX_ADC1_Init();
 1563              		.loc 1 453 3 view .LVU458
 1564 0020 FFF7FEFF 		bl	MX_USB_OTG_FS_PCD_Init
 1565              	.LVL79:
 454:Core/Src/main.c ****   MX_TIM6_Init();
 1566              		.loc 1 454 3 view .LVU459
 1567 0024 FFF7FEFF 		bl	MX_ADC1_Init
 1568              	.LVL80:
 455:Core/Src/main.c ****   MX_TIM7_Init();
 1569              		.loc 1 455 3 view .LVU460
 1570 0028 FFF7FEFF 		bl	MX_TIM6_Init
 1571              	.LVL81:
 456:Core/Src/main.c ****   /* USER CODE BEGIN 2 */
 1572              		.loc 1 456 3 view .LVU461
 1573 002c FFF7FEFF 		bl	MX_TIM7_Init
 1574              	.LVL82:
 458:Core/Src/main.c ****   HAL_TIM_Base_Start_IT(&htim7);
 1575              		.loc 1 458 3 view .LVU462
 1576 0030 1148     		ldr	r0, .L99
 1577 0032 FFF7FEFF 		bl	HAL_TIM_Base_Start_IT
 1578              	.LVL83:
 459:Core/Src/main.c ****   HAL_ADC_Start_DMA(&hadc1, (uint32_t*) adc_val, FULL_BUF_SIZE);
 1579              		.loc 1 459 3 view .LVU463
 1580 0036 1148     		ldr	r0, .L99+4
 1581 0038 FFF7FEFF 		bl	HAL_TIM_Base_Start_IT
 1582              	.LVL84:
 460:Core/Src/main.c ****   HAL_DAC_Start_DMA(&hdac1, DAC_CHANNEL_1, (uint32_t*) dac_val, FULL_BUF_SIZE, DAC_ALIGN_12B_R);
 1583              		.loc 1 460 3 view .LVU464
 1584 003c 4FF48072 		mov	r2, #256
 1585 0040 0F49     		ldr	r1, .L99+8
 1586 0042 1048     		ldr	r0, .L99+12
 1587 0044 FFF7FEFF 		bl	HAL_ADC_Start_DMA
 1588              	.LVL85:
 461:Core/Src/main.c **** 
 1589              		.loc 1 461 3 view .LVU465
 1590 0048 0021     		movs	r1, #0
 1591 004a 0091     		str	r1, [sp]
 1592 004c 4FF48073 		mov	r3, #256
 1593 0050 0D4A     		ldr	r2, .L99+16
 1594 0052 0E48     		ldr	r0, .L99+20
 1595 0054 FFF7FEFF 		bl	HAL_DAC_Start_DMA
 1596              	.LVL86:
 1597              	.L96:
 468:Core/Src/main.c ****     {
 1598              		.loc 1 468 5 view .LVU466
 470:Core/Src/main.c ****         HAL_GPIO_TogglePin(GPIOC, GPIO_PIN_8);
ARM GAS  C:\Users\ldu08\AppData\Local\Temp\cc4QOEDi.s 			page 55


 1599              		.loc 1 470 7 view .LVU467
 470:Core/Src/main.c ****         HAL_GPIO_TogglePin(GPIOC, GPIO_PIN_8);
 1600              		.loc 1 470 11 is_stmt 0 view .LVU468
 1601 0058 0D4B     		ldr	r3, .L99+24
 1602 005a 1B68     		ldr	r3, [r3]
 470:Core/Src/main.c ****         HAL_GPIO_TogglePin(GPIOC, GPIO_PIN_8);
 1603              		.loc 1 470 10 view .LVU469
 1604 005c 002B     		cmp	r3, #0
 1605 005e FBD0     		beq	.L96
 471:Core/Src/main.c ****         flag = 0;
 1606              		.loc 1 471 9 is_stmt 1 view .LVU470
 1607 0060 4FF48071 		mov	r1, #256
 1608 0064 0B48     		ldr	r0, .L99+28
 1609 0066 FFF7FEFF 		bl	HAL_GPIO_TogglePin
 1610              	.LVL87:
 472:Core/Src/main.c ****         process_data();
 1611              		.loc 1 472 9 view .LVU471
 472:Core/Src/main.c ****         process_data();
 1612              		.loc 1 472 14 is_stmt 0 view .LVU472
 1613 006a 094B     		ldr	r3, .L99+24
 1614 006c 0022     		movs	r2, #0
 1615 006e 1A60     		str	r2, [r3]
 473:Core/Src/main.c ****       }
 1616              		.loc 1 473 9 is_stmt 1 view .LVU473
 1617 0070 FFF7FEFF 		bl	process_data
 1618              	.LVL88:
 1619 0074 F0E7     		b	.L96
 1620              	.L100:
 1621 0076 00BF     		.align	2
 1622              	.L99:
 1623 0078 00000000 		.word	.LANCHOR15
 1624 007c 00000000 		.word	.LANCHOR16
 1625 0080 00000000 		.word	.LANCHOR1
 1626 0084 00000000 		.word	.LANCHOR14
 1627 0088 00000000 		.word	.LANCHOR3
 1628 008c 00000000 		.word	.LANCHOR11
 1629 0090 00000000 		.word	.LANCHOR4
 1630 0094 00080048 		.word	1207961600
 1631              		.cfi_endproc
 1632              	.LFE327:
 1634              		.global	fir_w_ptr
 1635              		.global	firptr
 1636              		.global	firdata
 1637              		.global	ema_out
 1638              		.global	ema_alpha
 1639              		.global	numbytes
 1640              		.global	Wave_LUT
 1641              		.global	counter_counter
 1642              		.global	counter
 1643              		.global	flag
 1644              		.global	out_out_ptr
 1645              		.global	out_buf_ptr
 1646              		.global	in_buf_ptr
 1647              		.global	dac_val
 1648              		.global	adc_val
 1649              		.global	hpcd_USB_OTG_FS
 1650              		.global	htim7
ARM GAS  C:\Users\ldu08\AppData\Local\Temp\cc4QOEDi.s 			page 56


 1651              		.global	htim6
 1652              		.global	hlpuart1
 1653              		.global	hdma_dac_ch1
 1654              		.global	hdac1
 1655              		.global	hdma_adc1
 1656              		.global	hadc1
 1657              		.section	.bss.adc_val,"aw",%nobits
 1658              		.align	2
 1659              		.set	.LANCHOR1,. + 0
 1662              	adc_val:
 1663 0000 00000000 		.space	1024
 1663      00000000 
 1663      00000000 
 1663      00000000 
 1663      00000000 
 1664              		.section	.bss.counter,"aw",%nobits
 1665              		.align	2
 1668              	counter:
 1669 0000 00000000 		.space	4
 1670              		.section	.bss.counter_counter,"aw",%nobits
 1671              		.align	2
 1674              	counter_counter:
 1675 0000 00000000 		.space	4
 1676              		.section	.bss.dac_val,"aw",%nobits
 1677              		.align	2
 1678              		.set	.LANCHOR3,. + 0
 1681              	dac_val:
 1682 0000 00000000 		.space	1024
 1682      00000000 
 1682      00000000 
 1682      00000000 
 1682      00000000 
 1683              		.section	.bss.ema_out,"aw",%nobits
 1684              		.align	2
 1685              		.set	.LANCHOR6,. + 0
 1688              	ema_out:
 1689 0000 00000000 		.space	4
 1690              		.section	.bss.fir_w_ptr,"aw",%nobits
 1691              		.align	2
 1692              		.set	.LANCHOR10,. + 0
 1695              	fir_w_ptr:
 1696 0000 00000000 		.space	4
 1697              		.section	.bss.firdata,"aw",%nobits
 1698              		.align	2
 1699              		.set	.LANCHOR9,. + 0
 1702              	firdata:
 1703 0000 00000000 		.space	20
 1703      00000000 
 1703      00000000 
 1703      00000000 
 1703      00000000 
 1704              		.section	.bss.firptr,"aw",%nobits
 1705              		.align	2
 1706              		.set	.LANCHOR7,. + 0
 1709              	firptr:
 1710 0000 00000000 		.space	20
 1710      00000000 
ARM GAS  C:\Users\ldu08\AppData\Local\Temp\cc4QOEDi.s 			page 57


 1710      00000000 
 1710      00000000 
 1710      00000000 
 1711              		.section	.bss.flag,"aw",%nobits
 1712              		.align	2
 1713              		.set	.LANCHOR4,. + 0
 1716              	flag:
 1717 0000 00000000 		.space	4
 1718              		.section	.bss.hadc1,"aw",%nobits
 1719              		.align	2
 1720              		.set	.LANCHOR14,. + 0
 1723              	hadc1:
 1724 0000 00000000 		.space	104
 1724      00000000 
 1724      00000000 
 1724      00000000 
 1724      00000000 
 1725              		.section	.bss.hdac1,"aw",%nobits
 1726              		.align	2
 1727              		.set	.LANCHOR11,. + 0
 1730              	hdac1:
 1731 0000 00000000 		.space	20
 1731      00000000 
 1731      00000000 
 1731      00000000 
 1731      00000000 
 1732              		.section	.bss.hdma_adc1,"aw",%nobits
 1733              		.align	2
 1736              	hdma_adc1:
 1737 0000 00000000 		.space	72
 1737      00000000 
 1737      00000000 
 1737      00000000 
 1737      00000000 
 1738              		.section	.bss.hdma_dac_ch1,"aw",%nobits
 1739              		.align	2
 1742              	hdma_dac_ch1:
 1743 0000 00000000 		.space	72
 1743      00000000 
 1743      00000000 
 1743      00000000 
 1743      00000000 
 1744              		.section	.bss.hlpuart1,"aw",%nobits
 1745              		.align	2
 1746              		.set	.LANCHOR12,. + 0
 1749              	hlpuart1:
 1750 0000 00000000 		.space	136
 1750      00000000 
 1750      00000000 
 1750      00000000 
 1750      00000000 
 1751              		.section	.bss.hpcd_USB_OTG_FS,"aw",%nobits
 1752              		.align	2
 1753              		.set	.LANCHOR13,. + 0
 1756              	hpcd_USB_OTG_FS:
 1757 0000 00000000 		.space	1292
 1757      00000000 
ARM GAS  C:\Users\ldu08\AppData\Local\Temp\cc4QOEDi.s 			page 58


 1757      00000000 
 1757      00000000 
 1757      00000000 
 1758              		.section	.bss.htim6,"aw",%nobits
 1759              		.align	2
 1760              		.set	.LANCHOR15,. + 0
 1763              	htim6:
 1764 0000 00000000 		.space	76
 1764      00000000 
 1764      00000000 
 1764      00000000 
 1764      00000000 
 1765              		.section	.bss.htim7,"aw",%nobits
 1766              		.align	2
 1767              		.set	.LANCHOR16,. + 0
 1770              	htim7:
 1771 0000 00000000 		.space	76
 1771      00000000 
 1771      00000000 
 1771      00000000 
 1771      00000000 
 1772              		.section	.bss.in_buf_ptr,"aw",%nobits
 1773              		.align	2
 1774              		.set	.LANCHOR0,. + 0
 1777              	in_buf_ptr:
 1778 0000 00000000 		.space	4
 1779              		.section	.bss.numbytes,"aw",%nobits
 1780              		.align	2
 1783              	numbytes:
 1784 0000 00000000 		.space	4
 1785              		.section	.bss.out_buf_ptr,"aw",%nobits
 1786              		.align	2
 1787              		.set	.LANCHOR2,. + 0
 1790              	out_buf_ptr:
 1791 0000 00000000 		.space	4
 1792              		.section	.bss.out_out_ptr,"aw",%nobits
 1793              		.align	2
 1796              	out_out_ptr:
 1797 0000 00000000 		.space	4
 1798              		.section	.data.Wave_LUT,"aw"
 1799              		.align	2
 1802              	Wave_LUT:
 1803 0000 00000000 		.word	0
 1804 0004 CCE2CD3B 		.word	1003348684
 1805 0008 CBE14D3C 		.word	1011737035
 1806 000c 0B689A3C 		.word	1016752139
 1807 0010 A4DDCD3C 		.word	1020124580
 1808 0014 92A8003D 		.word	1023453330
 1809 0018 05611A3D 		.word	1025138949
 1810 001c EA17343D 		.word	1026824170
 1811 0020 FDCC4D3D 		.word	1028508925
 1812 0024 F97F673D 		.word	1030193145
 1813 0028 5198803D 		.word	1031837777
 1814 002c 586F8D3D 		.word	1032679256
 1815 0030 F1449A3D 		.word	1033520369
 1816 0034 FA18A73D 		.word	1034361082
 1817 0038 54EBB33D 		.word	1035201364
ARM GAS  C:\Users\ldu08\AppData\Local\Temp\cc4QOEDi.s 			page 59


 1818 003c DCBBC03D 		.word	1036041180
 1819 0040 718ACD3D 		.word	1036880497
 1820 0044 F256DA3D 		.word	1037719282
 1821 0048 3F21E73D 		.word	1038557503
 1822 004c 36E9F33D 		.word	1039395126
 1823 0050 5B57003E 		.word	1040209755
 1824 0054 CFB8063E 		.word	1040627919
 1825 0058 E6180D3E 		.word	1041045734
 1826 005c 9077133E 		.word	1041463184
 1827 0060 BDD4193E 		.word	1041880253
 1828 0064 5C30203E 		.word	1042296924
 1829 0068 5C8A263E 		.word	1042713180
 1830 006c ACE22C3E 		.word	1043129004
 1831 0070 3F39333E 		.word	1043544383
 1832 0074 018E393E 		.word	1043959297
 1833 0078 E3E03F3E 		.word	1044373731
 1834 007c D531463E 		.word	1044787669
 1835 0080 C6804C3E 		.word	1045201094
 1836 0084 A6CD523E 		.word	1045613990
 1837 0088 6418593E 		.word	1046026340
 1838 008c F1605F3E 		.word	1046438129
 1839 0090 3CA7653E 		.word	1046849340
 1840 0094 35EB6B3E 		.word	1047259957
 1841 0098 CB2C723E 		.word	1047669963
 1842 009c EF6B783E 		.word	1048079343
 1843 00a0 90A87E3E 		.word	1048488080
 1844 00a4 4F71823E 		.word	1048736079
 1845 00a8 058D853E 		.word	1048939781
 1846 00ac 61A7883E 		.word	1049143137
 1847 00b0 5BC08B3E 		.word	1049346139
 1848 00b4 ECD78E3E 		.word	1049548780
 1849 00b8 0BEE913E 		.word	1049751051
 1850 00bc B102953E 		.word	1049952945
 1851 00c0 D515983E 		.word	1050154453
 1852 00c4 70279B3E 		.word	1050355568
 1853 00c8 7A379E3E 		.word	1050556282
 1854 00cc EA45A13E 		.word	1050756586
 1855 00d0 B952A43E 		.word	1050956473
 1856 00d4 DE5DA73E 		.word	1051155934
 1857 00d8 5367AA3E 		.word	1051354963
 1858 00dc 0F6FAD3E 		.word	1051553551
 1859 00e0 0975B03E 		.word	1051751689
 1860 00e4 3C79B33E 		.word	1051949372
 1861 00e8 9E7BB63E 		.word	1052146590
 1862 00ec 287CB93E 		.word	1052343336
 1863 00f0 D27ABC3E 		.word	1052539602
 1864 00f4 9577BF3E 		.word	1052735381
 1865 00f8 6872C23E 		.word	1052930664
 1866 00fc 446BC53E 		.word	1053125444
 1867 0100 2162C83E 		.word	1053319713
 1868 0104 F856CB3E 		.word	1053513464
 1869 0108 C149CE3E 		.word	1053706689
 1870 010c 733AD13E 		.word	1053899379
 1871 0110 0929D43E 		.word	1054091529
 1872 0114 7A15D73E 		.word	1054283130
 1873 0118 BEFFD93E 		.word	1054474174
 1874 011c CFE7DC3E 		.word	1054664655
ARM GAS  C:\Users\ldu08\AppData\Local\Temp\cc4QOEDi.s 			page 60


 1875 0120 A3CDDF3E 		.word	1054854563
 1876 0124 35B1E23E 		.word	1055043893
 1877 0128 7C92E53E 		.word	1055232636
 1878 012c 7171E83E 		.word	1055420785
 1879 0130 0D4EEB3E 		.word	1055608333
 1880 0134 4828EE3E 		.word	1055795272
 1881 0138 1B00F13E 		.word	1055981595
 1882 013c 7ED5F33E 		.word	1056167294
 1883 0140 6BA8F63E 		.word	1056352363
 1884 0144 D978F93E 		.word	1056536793
 1885 0148 C246FC3E 		.word	1056720578
 1886 014c 1E12FF3E 		.word	1056903710
 1887 0150 73ED003F 		.word	1057025395
 1888 0154 8A50023F 		.word	1057116298
 1889 0158 4FB2033F 		.word	1057206863
 1890 015c C012053F 		.word	1057297088
 1891 0160 D871063F 		.word	1057386968
 1892 0164 95CF073F 		.word	1057476501
 1893 0168 F22B093F 		.word	1057565682
 1894 016c EC860A3F 		.word	1057654508
 1895 0170 80E00B3F 		.word	1057742976
 1896 0174 AA380D3F 		.word	1057831082
 1897 0178 678F0E3F 		.word	1057918823
 1898 017c B2E40F3F 		.word	1058006194
 1899 0180 8A38113F 		.word	1058093194
 1900 0184 E98A123F 		.word	1058179817
 1901 0188 CEDB133F 		.word	1058266062
 1902 018c 342B153F 		.word	1058351924
 1903 0190 1879163F 		.word	1058437400
 1904 0194 77C5173F 		.word	1058522487
 1905 0198 4D10193F 		.word	1058607181
 1906 019c 97591A3F 		.word	1058691479
 1907 01a0 52A11B3F 		.word	1058775378
 1908 01a4 7AE71C3F 		.word	1058858874
 1909 01a8 0C2C1E3F 		.word	1058941964
 1910 01ac 056F1F3F 		.word	1059024645
 1911 01b0 62B0203F 		.word	1059106914
 1912 01b4 1EF0213F 		.word	1059188766
 1913 01b8 382E233F 		.word	1059270200
 1914 01bc AB6A243F 		.word	1059351211
 1915 01c0 76A5253F 		.word	1059431798
 1916 01c4 93DE263F 		.word	1059511955
 1917 01c8 0116283F 		.word	1059591681
 1918 01cc BC4B293F 		.word	1059670972
 1919 01d0 C17F2A3F 		.word	1059749825
 1920 01d4 0DB22B3F 		.word	1059828237
 1921 01d8 9CE22C3F 		.word	1059906204
 1922 01dc 6D112E3F 		.word	1059983725
 1923 01e0 7B3E2F3F 		.word	1060060795
 1924 01e4 C369303F 		.word	1060137411
 1925 01e8 4393313F 		.word	1060213571
 1926 01ec F8BA323F 		.word	1060289272
 1927 01f0 DEE0333F 		.word	1060364510
 1928 01f4 F304353F 		.word	1060439283
 1929 01f8 3427363F 		.word	1060513588
 1930 01fc 9D47373F 		.word	1060587421
 1931 0200 2C66383F 		.word	1060660780
ARM GAS  C:\Users\ldu08\AppData\Local\Temp\cc4QOEDi.s 			page 61


 1932 0204 DE82393F 		.word	1060733662
 1933 0208 B09D3A3F 		.word	1060806064
 1934 020c 9FB63B3F 		.word	1060877983
 1935 0210 A9CD3C3F 		.word	1060949417
 1936 0214 CAE23D3F 		.word	1061020362
 1937 0218 00F63E3F 		.word	1061090816
 1938 021c 4707403F 		.word	1061160775
 1939 0220 9E16413F 		.word	1061230238
 1940 0224 0224423F 		.word	1061299202
 1941 0228 6F2F433F 		.word	1061367663
 1942 022c E338443F 		.word	1061435619
 1943 0230 5B40453F 		.word	1061503067
 1944 0234 D545463F 		.word	1061570005
 1945 0238 4E49473F 		.word	1061636430
 1946 023c C44A483F 		.word	1061702340
 1947 0240 334A493F 		.word	1061767731
 1948 0244 99474A3F 		.word	1061832601
 1949 0248 F4424B3F 		.word	1061896948
 1950 024c 423C4C3F 		.word	1061960770
 1951 0250 7E334D3F 		.word	1062024062
 1952 0254 A8284E3F 		.word	1062086824
 1953 0258 BD1B4F3F 		.word	1062149053
 1954 025c B90C503F 		.word	1062210745
 1955 0260 9CFB503F 		.word	1062271900
 1956 0264 62E8513F 		.word	1062332514
 1957 0268 08D3523F 		.word	1062392584
 1958 026c 8DBB533F 		.word	1062452109
 1959 0270 EFA1543F 		.word	1062511087
 1960 0274 2A86553F 		.word	1062569514
 1961 0278 3D68563F 		.word	1062627389
 1962 027c 2548573F 		.word	1062684709
 1963 0280 E025583F 		.word	1062741472
 1964 0284 6C01593F 		.word	1062797676
 1965 0288 C6DA593F 		.word	1062853318
 1966 028c EDB15A3F 		.word	1062908397
 1967 0290 DE865B3F 		.word	1062962910
 1968 0294 97595C3F 		.word	1063016855
 1969 0298 162A5D3F 		.word	1063070230
 1970 029c 58F85D3F 		.word	1063123032
 1971 02a0 5DC45E3F 		.word	1063175261
 1972 02a4 218E5F3F 		.word	1063226913
 1973 02a8 A255603F 		.word	1063277986
 1974 02ac E01A613F 		.word	1063328480
 1975 02b0 D7DD613F 		.word	1063378391
 1976 02b4 859E623F 		.word	1063427717
 1977 02b8 E95C633F 		.word	1063476457
 1978 02bc 0119643F 		.word	1063524609
 1979 02c0 CBD2643F 		.word	1063572171
 1980 02c4 448A653F 		.word	1063619140
 1981 02c8 6C3F663F 		.word	1063665516
 1982 02cc 40F2663F 		.word	1063711296
 1983 02d0 BFA2673F 		.word	1063756479
 1984 02d4 E650683F 		.word	1063801062
 1985 02d8 B4FC683F 		.word	1063845044
 1986 02dc 28A6693F 		.word	1063888424
 1987 02e0 3F4D6A3F 		.word	1063931199
 1988 02e4 F8F16A3F 		.word	1063973368
ARM GAS  C:\Users\ldu08\AppData\Local\Temp\cc4QOEDi.s 			page 62


 1989 02e8 51946B3F 		.word	1064014929
 1990 02ec 48346C3F 		.word	1064055880
 1991 02f0 DCD16C3F 		.word	1064096220
 1992 02f4 0C6D6D3F 		.word	1064135948
 1993 02f8 D5056E3F 		.word	1064175061
 1994 02fc 369C6E3F 		.word	1064213558
 1995 0300 2E306F3F 		.word	1064251438
 1996 0304 BCC16F3F 		.word	1064288700
 1997 0308 DD50703F 		.word	1064325341
 1998 030c 90DD703F 		.word	1064361360
 1999 0310 D467713F 		.word	1064396756
 2000 0314 A7EF713F 		.word	1064431527
 2001 0318 0975723F 		.word	1064465673
 2002 031c F7F7723F 		.word	1064499191
 2003 0320 7178733F 		.word	1064532081
 2004 0324 74F6733F 		.word	1064564340
 2005 0328 0172743F 		.word	1064595969
 2006 032c 15EB743F 		.word	1064626965
 2007 0330 AF61753F 		.word	1064657327
 2008 0334 CFD5753F 		.word	1064687055
 2009 0338 7247763F 		.word	1064716146
 2010 033c 98B6763F 		.word	1064744600
 2011 0340 4023773F 		.word	1064772416
 2012 0344 698D773F 		.word	1064799593
 2013 0348 11F5773F 		.word	1064826129
 2014 034c 385A783F 		.word	1064852024
 2015 0350 DBBC783F 		.word	1064877275
 2016 0354 FC1C793F 		.word	1064901884
 2017 0358 987A793F 		.word	1064925848
 2018 035c AED5793F 		.word	1064949166
 2019 0360 3E2E7A3F 		.word	1064971838
 2020 0364 47847A3F 		.word	1064993863
 2021 0368 C8D77A3F 		.word	1065015240
 2022 036c C0287B3F 		.word	1065035968
 2023 0370 2D777B3F 		.word	1065056045
 2024 0374 11C37B3F 		.word	1065075473
 2025 0378 680C7C3F 		.word	1065094248
 2026 037c 34537C3F 		.word	1065112372
 2027 0380 73977C3F 		.word	1065129843
 2028 0384 25D97C3F 		.word	1065146661
 2029 0388 48187D3F 		.word	1065162824
 2030 038c DC547D3F 		.word	1065178332
 2031 0390 E18E7D3F 		.word	1065193185
 2032 0394 56C67D3F 		.word	1065207382
 2033 0398 3BFB7D3F 		.word	1065220923
 2034 039c 8E2D7E3F 		.word	1065233806
 2035 03a0 505D7E3F 		.word	1065246032
 2036 03a4 7F8A7E3F 		.word	1065257599
 2037 03a8 1CB57E3F 		.word	1065268508
 2038 03ac 26DD7E3F 		.word	1065278758
 2039 03b0 9D027F3F 		.word	1065288349
 2040 03b4 80257F3F 		.word	1065297280
 2041 03b8 CE457F3F 		.word	1065305550
 2042 03bc 89637F3F 		.word	1065313161
 2043 03c0 AE7E7F3F 		.word	1065320110
 2044 03c4 3E977F3F 		.word	1065326398
 2045 03c8 3AAD7F3F 		.word	1065332026
ARM GAS  C:\Users\ldu08\AppData\Local\Temp\cc4QOEDi.s 			page 63


 2046 03cc 9FC07F3F 		.word	1065336991
 2047 03d0 6FD17F3F 		.word	1065341295
 2048 03d4 A9DF7F3F 		.word	1065344937
 2049 03d8 4EEB7F3F 		.word	1065347918
 2050 03dc 5CF47F3F 		.word	1065350236
 2051 03e0 D3FA7F3F 		.word	1065351891
 2052 03e4 B5FE7F3F 		.word	1065352885
 2053 03e8 0000803F 		.word	1065353216
 2054 03ec B5FE7F3F 		.word	1065352885
 2055 03f0 D3FA7F3F 		.word	1065351891
 2056 03f4 5CF47F3F 		.word	1065350236
 2057 03f8 4EEB7F3F 		.word	1065347918
 2058 03fc A9DF7F3F 		.word	1065344937
 2059 0400 6FD17F3F 		.word	1065341295
 2060 0404 9FC07F3F 		.word	1065336991
 2061 0408 3AAD7F3F 		.word	1065332026
 2062 040c 3E977F3F 		.word	1065326398
 2063 0410 AE7E7F3F 		.word	1065320110
 2064 0414 89637F3F 		.word	1065313161
 2065 0418 CE457F3F 		.word	1065305550
 2066 041c 80257F3F 		.word	1065297280
 2067 0420 9D027F3F 		.word	1065288349
 2068 0424 26DD7E3F 		.word	1065278758
 2069 0428 1CB57E3F 		.word	1065268508
 2070 042c 7F8A7E3F 		.word	1065257599
 2071 0430 505D7E3F 		.word	1065246032
 2072 0434 8E2D7E3F 		.word	1065233806
 2073 0438 3BFB7D3F 		.word	1065220923
 2074 043c 56C67D3F 		.word	1065207382
 2075 0440 E18E7D3F 		.word	1065193185
 2076 0444 DC547D3F 		.word	1065178332
 2077 0448 48187D3F 		.word	1065162824
 2078 044c 25D97C3F 		.word	1065146661
 2079 0450 73977C3F 		.word	1065129843
 2080 0454 34537C3F 		.word	1065112372
 2081 0458 680C7C3F 		.word	1065094248
 2082 045c 11C37B3F 		.word	1065075473
 2083 0460 2D777B3F 		.word	1065056045
 2084 0464 C0287B3F 		.word	1065035968
 2085 0468 C8D77A3F 		.word	1065015240
 2086 046c 47847A3F 		.word	1064993863
 2087 0470 3E2E7A3F 		.word	1064971838
 2088 0474 AED5793F 		.word	1064949166
 2089 0478 987A793F 		.word	1064925848
 2090 047c FC1C793F 		.word	1064901884
 2091 0480 DBBC783F 		.word	1064877275
 2092 0484 385A783F 		.word	1064852024
 2093 0488 11F5773F 		.word	1064826129
 2094 048c 698D773F 		.word	1064799593
 2095 0490 4023773F 		.word	1064772416
 2096 0494 98B6763F 		.word	1064744600
 2097 0498 7247763F 		.word	1064716146
 2098 049c CFD5753F 		.word	1064687055
 2099 04a0 AF61753F 		.word	1064657327
 2100 04a4 15EB743F 		.word	1064626965
 2101 04a8 0172743F 		.word	1064595969
 2102 04ac 74F6733F 		.word	1064564340
ARM GAS  C:\Users\ldu08\AppData\Local\Temp\cc4QOEDi.s 			page 64


 2103 04b0 7178733F 		.word	1064532081
 2104 04b4 F7F7723F 		.word	1064499191
 2105 04b8 0975723F 		.word	1064465673
 2106 04bc A7EF713F 		.word	1064431527
 2107 04c0 D467713F 		.word	1064396756
 2108 04c4 90DD703F 		.word	1064361360
 2109 04c8 DD50703F 		.word	1064325341
 2110 04cc BCC16F3F 		.word	1064288700
 2111 04d0 2E306F3F 		.word	1064251438
 2112 04d4 369C6E3F 		.word	1064213558
 2113 04d8 D5056E3F 		.word	1064175061
 2114 04dc 0C6D6D3F 		.word	1064135948
 2115 04e0 DCD16C3F 		.word	1064096220
 2116 04e4 48346C3F 		.word	1064055880
 2117 04e8 51946B3F 		.word	1064014929
 2118 04ec F8F16A3F 		.word	1063973368
 2119 04f0 3F4D6A3F 		.word	1063931199
 2120 04f4 28A6693F 		.word	1063888424
 2121 04f8 B4FC683F 		.word	1063845044
 2122 04fc E650683F 		.word	1063801062
 2123 0500 BFA2673F 		.word	1063756479
 2124 0504 40F2663F 		.word	1063711296
 2125 0508 6C3F663F 		.word	1063665516
 2126 050c 448A653F 		.word	1063619140
 2127 0510 CBD2643F 		.word	1063572171
 2128 0514 0119643F 		.word	1063524609
 2129 0518 E95C633F 		.word	1063476457
 2130 051c 859E623F 		.word	1063427717
 2131 0520 D7DD613F 		.word	1063378391
 2132 0524 E01A613F 		.word	1063328480
 2133 0528 A255603F 		.word	1063277986
 2134 052c 218E5F3F 		.word	1063226913
 2135 0530 5DC45E3F 		.word	1063175261
 2136 0534 58F85D3F 		.word	1063123032
 2137 0538 162A5D3F 		.word	1063070230
 2138 053c 97595C3F 		.word	1063016855
 2139 0540 DE865B3F 		.word	1062962910
 2140 0544 EDB15A3F 		.word	1062908397
 2141 0548 C6DA593F 		.word	1062853318
 2142 054c 6C01593F 		.word	1062797676
 2143 0550 E025583F 		.word	1062741472
 2144 0554 2548573F 		.word	1062684709
 2145 0558 3D68563F 		.word	1062627389
 2146 055c 2A86553F 		.word	1062569514
 2147 0560 EFA1543F 		.word	1062511087
 2148 0564 8DBB533F 		.word	1062452109
 2149 0568 08D3523F 		.word	1062392584
 2150 056c 62E8513F 		.word	1062332514
 2151 0570 9CFB503F 		.word	1062271900
 2152 0574 B90C503F 		.word	1062210745
 2153 0578 BD1B4F3F 		.word	1062149053
 2154 057c A8284E3F 		.word	1062086824
 2155 0580 7E334D3F 		.word	1062024062
 2156 0584 423C4C3F 		.word	1061960770
 2157 0588 F4424B3F 		.word	1061896948
 2158 058c 99474A3F 		.word	1061832601
 2159 0590 334A493F 		.word	1061767731
ARM GAS  C:\Users\ldu08\AppData\Local\Temp\cc4QOEDi.s 			page 65


 2160 0594 C44A483F 		.word	1061702340
 2161 0598 4E49473F 		.word	1061636430
 2162 059c D545463F 		.word	1061570005
 2163 05a0 5B40453F 		.word	1061503067
 2164 05a4 E338443F 		.word	1061435619
 2165 05a8 6F2F433F 		.word	1061367663
 2166 05ac 0224423F 		.word	1061299202
 2167 05b0 9E16413F 		.word	1061230238
 2168 05b4 4707403F 		.word	1061160775
 2169 05b8 00F63E3F 		.word	1061090816
 2170 05bc CAE23D3F 		.word	1061020362
 2171 05c0 A9CD3C3F 		.word	1060949417
 2172 05c4 9FB63B3F 		.word	1060877983
 2173 05c8 B09D3A3F 		.word	1060806064
 2174 05cc DE82393F 		.word	1060733662
 2175 05d0 2C66383F 		.word	1060660780
 2176 05d4 9D47373F 		.word	1060587421
 2177 05d8 3427363F 		.word	1060513588
 2178 05dc F304353F 		.word	1060439283
 2179 05e0 DEE0333F 		.word	1060364510
 2180 05e4 F8BA323F 		.word	1060289272
 2181 05e8 4393313F 		.word	1060213571
 2182 05ec C369303F 		.word	1060137411
 2183 05f0 7B3E2F3F 		.word	1060060795
 2184 05f4 6D112E3F 		.word	1059983725
 2185 05f8 9CE22C3F 		.word	1059906204
 2186 05fc 0DB22B3F 		.word	1059828237
 2187 0600 C17F2A3F 		.word	1059749825
 2188 0604 BC4B293F 		.word	1059670972
 2189 0608 0116283F 		.word	1059591681
 2190 060c 93DE263F 		.word	1059511955
 2191 0610 76A5253F 		.word	1059431798
 2192 0614 AB6A243F 		.word	1059351211
 2193 0618 382E233F 		.word	1059270200
 2194 061c 1EF0213F 		.word	1059188766
 2195 0620 62B0203F 		.word	1059106914
 2196 0624 056F1F3F 		.word	1059024645
 2197 0628 0C2C1E3F 		.word	1058941964
 2198 062c 7AE71C3F 		.word	1058858874
 2199 0630 52A11B3F 		.word	1058775378
 2200 0634 97591A3F 		.word	1058691479
 2201 0638 4D10193F 		.word	1058607181
 2202 063c 77C5173F 		.word	1058522487
 2203 0640 1879163F 		.word	1058437400
 2204 0644 342B153F 		.word	1058351924
 2205 0648 CEDB133F 		.word	1058266062
 2206 064c E98A123F 		.word	1058179817
 2207 0650 8A38113F 		.word	1058093194
 2208 0654 B2E40F3F 		.word	1058006194
 2209 0658 678F0E3F 		.word	1057918823
 2210 065c AA380D3F 		.word	1057831082
 2211 0660 80E00B3F 		.word	1057742976
 2212 0664 EC860A3F 		.word	1057654508
 2213 0668 F22B093F 		.word	1057565682
 2214 066c 95CF073F 		.word	1057476501
 2215 0670 D871063F 		.word	1057386968
 2216 0674 C012053F 		.word	1057297088
ARM GAS  C:\Users\ldu08\AppData\Local\Temp\cc4QOEDi.s 			page 66


 2217 0678 4FB2033F 		.word	1057206863
 2218 067c 8A50023F 		.word	1057116298
 2219 0680 73ED003F 		.word	1057025395
 2220 0684 1E12FF3E 		.word	1056903710
 2221 0688 C246FC3E 		.word	1056720578
 2222 068c D978F93E 		.word	1056536793
 2223 0690 6BA8F63E 		.word	1056352363
 2224 0694 7ED5F33E 		.word	1056167294
 2225 0698 1B00F13E 		.word	1055981595
 2226 069c 4828EE3E 		.word	1055795272
 2227 06a0 0D4EEB3E 		.word	1055608333
 2228 06a4 7171E83E 		.word	1055420785
 2229 06a8 7C92E53E 		.word	1055232636
 2230 06ac 35B1E23E 		.word	1055043893
 2231 06b0 A3CDDF3E 		.word	1054854563
 2232 06b4 CFE7DC3E 		.word	1054664655
 2233 06b8 BEFFD93E 		.word	1054474174
 2234 06bc 7A15D73E 		.word	1054283130
 2235 06c0 0929D43E 		.word	1054091529
 2236 06c4 733AD13E 		.word	1053899379
 2237 06c8 C149CE3E 		.word	1053706689
 2238 06cc F856CB3E 		.word	1053513464
 2239 06d0 2162C83E 		.word	1053319713
 2240 06d4 446BC53E 		.word	1053125444
 2241 06d8 6872C23E 		.word	1052930664
 2242 06dc 9577BF3E 		.word	1052735381
 2243 06e0 D27ABC3E 		.word	1052539602
 2244 06e4 287CB93E 		.word	1052343336
 2245 06e8 9E7BB63E 		.word	1052146590
 2246 06ec 3C79B33E 		.word	1051949372
 2247 06f0 0975B03E 		.word	1051751689
 2248 06f4 0F6FAD3E 		.word	1051553551
 2249 06f8 5367AA3E 		.word	1051354963
 2250 06fc DE5DA73E 		.word	1051155934
 2251 0700 B952A43E 		.word	1050956473
 2252 0704 EA45A13E 		.word	1050756586
 2253 0708 7A379E3E 		.word	1050556282
 2254 070c 70279B3E 		.word	1050355568
 2255 0710 D515983E 		.word	1050154453
 2256 0714 B102953E 		.word	1049952945
 2257 0718 0BEE913E 		.word	1049751051
 2258 071c ECD78E3E 		.word	1049548780
 2259 0720 5BC08B3E 		.word	1049346139
 2260 0724 61A7883E 		.word	1049143137
 2261 0728 058D853E 		.word	1048939781
 2262 072c 4F71823E 		.word	1048736079
 2263 0730 90A87E3E 		.word	1048488080
 2264 0734 EF6B783E 		.word	1048079343
 2265 0738 CB2C723E 		.word	1047669963
 2266 073c 35EB6B3E 		.word	1047259957
 2267 0740 3CA7653E 		.word	1046849340
 2268 0744 F1605F3E 		.word	1046438129
 2269 0748 6418593E 		.word	1046026340
 2270 074c A6CD523E 		.word	1045613990
 2271 0750 C6804C3E 		.word	1045201094
 2272 0754 D531463E 		.word	1044787669
 2273 0758 E3E03F3E 		.word	1044373731
ARM GAS  C:\Users\ldu08\AppData\Local\Temp\cc4QOEDi.s 			page 67


 2274 075c 018E393E 		.word	1043959297
 2275 0760 3F39333E 		.word	1043544383
 2276 0764 ACE22C3E 		.word	1043129004
 2277 0768 5C8A263E 		.word	1042713180
 2278 076c 5C30203E 		.word	1042296924
 2279 0770 BDD4193E 		.word	1041880253
 2280 0774 9077133E 		.word	1041463184
 2281 0778 E6180D3E 		.word	1041045734
 2282 077c CFB8063E 		.word	1040627919
 2283 0780 5B57003E 		.word	1040209755
 2284 0784 36E9F33D 		.word	1039395126
 2285 0788 3F21E73D 		.word	1038557503
 2286 078c F256DA3D 		.word	1037719282
 2287 0790 718ACD3D 		.word	1036880497
 2288 0794 DCBBC03D 		.word	1036041180
 2289 0798 54EBB33D 		.word	1035201364
 2290 079c FA18A73D 		.word	1034361082
 2291 07a0 F1449A3D 		.word	1033520369
 2292 07a4 586F8D3D 		.word	1032679256
 2293 07a8 5198803D 		.word	1031837777
 2294 07ac F97F673D 		.word	1030193145
 2295 07b0 FDCC4D3D 		.word	1028508925
 2296 07b4 EA17343D 		.word	1026824170
 2297 07b8 05611A3D 		.word	1025138949
 2298 07bc 92A8003D 		.word	1023453330
 2299 07c0 A4DDCD3C 		.word	1020124580
 2300 07c4 0B689A3C 		.word	1016752139
 2301 07c8 CBE14D3C 		.word	1011737035
 2302 07cc CCE2CD3B 		.word	1003348684
 2303 07d0 00000000 		.word	0
 2304 07d4 CCE2CDBB 		.word	-1144134964
 2305 07d8 CBE14DBC 		.word	-1135746613
 2306 07dc 0B689ABC 		.word	-1130731509
 2307 07e0 A4DDCDBC 		.word	-1127359068
 2308 07e4 92A800BD 		.word	-1124030318
 2309 07e8 05611ABD 		.word	-1122344699
 2310 07ec EA1734BD 		.word	-1120659478
 2311 07f0 FDCC4DBD 		.word	-1118974723
 2312 07f4 F97F67BD 		.word	-1117290503
 2313 07f8 519880BD 		.word	-1115645871
 2314 07fc 586F8DBD 		.word	-1114804392
 2315 0800 F1449ABD 		.word	-1113963279
 2316 0804 FA18A7BD 		.word	-1113122566
 2317 0808 54EBB3BD 		.word	-1112282284
 2318 080c DCBBC0BD 		.word	-1111442468
 2319 0810 718ACDBD 		.word	-1110603151
 2320 0814 F256DABD 		.word	-1109764366
 2321 0818 3F21E7BD 		.word	-1108926145
 2322 081c 36E9F3BD 		.word	-1108088522
 2323 0820 5B5700BE 		.word	-1107273893
 2324 0824 CFB806BE 		.word	-1106855729
 2325 0828 E6180DBE 		.word	-1106437914
 2326 082c 907713BE 		.word	-1106020464
 2327 0830 BDD419BE 		.word	-1105603395
 2328 0834 5C3020BE 		.word	-1105186724
 2329 0838 5C8A26BE 		.word	-1104770468
 2330 083c ACE22CBE 		.word	-1104354644
ARM GAS  C:\Users\ldu08\AppData\Local\Temp\cc4QOEDi.s 			page 68


 2331 0840 3F3933BE 		.word	-1103939265
 2332 0844 018E39BE 		.word	-1103524351
 2333 0848 E3E03FBE 		.word	-1103109917
 2334 084c D53146BE 		.word	-1102695979
 2335 0850 C6804CBE 		.word	-1102282554
 2336 0854 A6CD52BE 		.word	-1101869658
 2337 0858 641859BE 		.word	-1101457308
 2338 085c F1605FBE 		.word	-1101045519
 2339 0860 3CA765BE 		.word	-1100634308
 2340 0864 35EB6BBE 		.word	-1100223691
 2341 0868 CB2C72BE 		.word	-1099813685
 2342 086c EF6B78BE 		.word	-1099404305
 2343 0870 90A87EBE 		.word	-1098995568
 2344 0874 4F7182BE 		.word	-1098747569
 2345 0878 058D85BE 		.word	-1098543867
 2346 087c 61A788BE 		.word	-1098340511
 2347 0880 5BC08BBE 		.word	-1098137509
 2348 0884 ECD78EBE 		.word	-1097934868
 2349 0888 0BEE91BE 		.word	-1097732597
 2350 088c B10295BE 		.word	-1097530703
 2351 0890 D51598BE 		.word	-1097329195
 2352 0894 70279BBE 		.word	-1097128080
 2353 0898 7A379EBE 		.word	-1096927366
 2354 089c EA45A1BE 		.word	-1096727062
 2355 08a0 B952A4BE 		.word	-1096527175
 2356 08a4 DE5DA7BE 		.word	-1096327714
 2357 08a8 5367AABE 		.word	-1096128685
 2358 08ac 0F6FADBE 		.word	-1095930097
 2359 08b0 0975B0BE 		.word	-1095731959
 2360 08b4 3C79B3BE 		.word	-1095534276
 2361 08b8 9E7BB6BE 		.word	-1095337058
 2362 08bc 287CB9BE 		.word	-1095140312
 2363 08c0 D27ABCBE 		.word	-1094944046
 2364 08c4 9577BFBE 		.word	-1094748267
 2365 08c8 6872C2BE 		.word	-1094552984
 2366 08cc 446BC5BE 		.word	-1094358204
 2367 08d0 2162C8BE 		.word	-1094163935
 2368 08d4 F856CBBE 		.word	-1093970184
 2369 08d8 C149CEBE 		.word	-1093776959
 2370 08dc 733AD1BE 		.word	-1093584269
 2371 08e0 0929D4BE 		.word	-1093392119
 2372 08e4 7A15D7BE 		.word	-1093200518
 2373 08e8 BEFFD9BE 		.word	-1093009474
 2374 08ec CFE7DCBE 		.word	-1092818993
 2375 08f0 A3CDDFBE 		.word	-1092629085
 2376 08f4 35B1E2BE 		.word	-1092439755
 2377 08f8 7C92E5BE 		.word	-1092251012
 2378 08fc 7171E8BE 		.word	-1092062863
 2379 0900 0D4EEBBE 		.word	-1091875315
 2380 0904 4828EEBE 		.word	-1091688376
 2381 0908 1B00F1BE 		.word	-1091502053
 2382 090c 7ED5F3BE 		.word	-1091316354
 2383 0910 6BA8F6BE 		.word	-1091131285
 2384 0914 D978F9BE 		.word	-1090946855
 2385 0918 C246FCBE 		.word	-1090763070
 2386 091c 1E12FFBE 		.word	-1090579938
 2387 0920 73ED00BF 		.word	-1090458253
ARM GAS  C:\Users\ldu08\AppData\Local\Temp\cc4QOEDi.s 			page 69


 2388 0924 8A5002BF 		.word	-1090367350
 2389 0928 4FB203BF 		.word	-1090276785
 2390 092c C01205BF 		.word	-1090186560
 2391 0930 D87106BF 		.word	-1090096680
 2392 0934 95CF07BF 		.word	-1090007147
 2393 0938 F22B09BF 		.word	-1089917966
 2394 093c EC860ABF 		.word	-1089829140
 2395 0940 80E00BBF 		.word	-1089740672
 2396 0944 AA380DBF 		.word	-1089652566
 2397 0948 678F0EBF 		.word	-1089564825
 2398 094c B2E40FBF 		.word	-1089477454
 2399 0950 8A3811BF 		.word	-1089390454
 2400 0954 E98A12BF 		.word	-1089303831
 2401 0958 CEDB13BF 		.word	-1089217586
 2402 095c 342B15BF 		.word	-1089131724
 2403 0960 187916BF 		.word	-1089046248
 2404 0964 77C517BF 		.word	-1088961161
 2405 0968 4D1019BF 		.word	-1088876467
 2406 096c 97591ABF 		.word	-1088792169
 2407 0970 52A11BBF 		.word	-1088708270
 2408 0974 7AE71CBF 		.word	-1088624774
 2409 0978 0C2C1EBF 		.word	-1088541684
 2410 097c 056F1FBF 		.word	-1088459003
 2411 0980 62B020BF 		.word	-1088376734
 2412 0984 1EF021BF 		.word	-1088294882
 2413 0988 382E23BF 		.word	-1088213448
 2414 098c AB6A24BF 		.word	-1088132437
 2415 0990 76A525BF 		.word	-1088051850
 2416 0994 93DE26BF 		.word	-1087971693
 2417 0998 011628BF 		.word	-1087891967
 2418 099c BC4B29BF 		.word	-1087812676
 2419 09a0 C17F2ABF 		.word	-1087733823
 2420 09a4 0DB22BBF 		.word	-1087655411
 2421 09a8 9CE22CBF 		.word	-1087577444
 2422 09ac 6D112EBF 		.word	-1087499923
 2423 09b0 7B3E2FBF 		.word	-1087422853
 2424 09b4 C36930BF 		.word	-1087346237
 2425 09b8 439331BF 		.word	-1087270077
 2426 09bc F8BA32BF 		.word	-1087194376
 2427 09c0 DEE033BF 		.word	-1087119138
 2428 09c4 F30435BF 		.word	-1087044365
 2429 09c8 342736BF 		.word	-1086970060
 2430 09cc 9D4737BF 		.word	-1086896227
 2431 09d0 2C6638BF 		.word	-1086822868
 2432 09d4 DE8239BF 		.word	-1086749986
 2433 09d8 B09D3ABF 		.word	-1086677584
 2434 09dc 9FB63BBF 		.word	-1086605665
 2435 09e0 A9CD3CBF 		.word	-1086534231
 2436 09e4 CAE23DBF 		.word	-1086463286
 2437 09e8 00F63EBF 		.word	-1086392832
 2438 09ec 470740BF 		.word	-1086322873
 2439 09f0 9E1641BF 		.word	-1086253410
 2440 09f4 022442BF 		.word	-1086184446
 2441 09f8 6F2F43BF 		.word	-1086115985
 2442 09fc E33844BF 		.word	-1086048029
 2443 0a00 5B4045BF 		.word	-1085980581
 2444 0a04 D54546BF 		.word	-1085913643
ARM GAS  C:\Users\ldu08\AppData\Local\Temp\cc4QOEDi.s 			page 70


 2445 0a08 4E4947BF 		.word	-1085847218
 2446 0a0c C44A48BF 		.word	-1085781308
 2447 0a10 334A49BF 		.word	-1085715917
 2448 0a14 99474ABF 		.word	-1085651047
 2449 0a18 F4424BBF 		.word	-1085586700
 2450 0a1c 423C4CBF 		.word	-1085522878
 2451 0a20 7E334DBF 		.word	-1085459586
 2452 0a24 A8284EBF 		.word	-1085396824
 2453 0a28 BD1B4FBF 		.word	-1085334595
 2454 0a2c B90C50BF 		.word	-1085272903
 2455 0a30 9CFB50BF 		.word	-1085211748
 2456 0a34 62E851BF 		.word	-1085151134
 2457 0a38 08D352BF 		.word	-1085091064
 2458 0a3c 8DBB53BF 		.word	-1085031539
 2459 0a40 EFA154BF 		.word	-1084972561
 2460 0a44 2A8655BF 		.word	-1084914134
 2461 0a48 3D6856BF 		.word	-1084856259
 2462 0a4c 254857BF 		.word	-1084798939
 2463 0a50 E02558BF 		.word	-1084742176
 2464 0a54 6C0159BF 		.word	-1084685972
 2465 0a58 C6DA59BF 		.word	-1084630330
 2466 0a5c EDB15ABF 		.word	-1084575251
 2467 0a60 DE865BBF 		.word	-1084520738
 2468 0a64 97595CBF 		.word	-1084466793
 2469 0a68 162A5DBF 		.word	-1084413418
 2470 0a6c 58F85DBF 		.word	-1084360616
 2471 0a70 5DC45EBF 		.word	-1084308387
 2472 0a74 218E5FBF 		.word	-1084256735
 2473 0a78 A25560BF 		.word	-1084205662
 2474 0a7c E01A61BF 		.word	-1084155168
 2475 0a80 D7DD61BF 		.word	-1084105257
 2476 0a84 859E62BF 		.word	-1084055931
 2477 0a88 E95C63BF 		.word	-1084007191
 2478 0a8c 011964BF 		.word	-1083959039
 2479 0a90 CBD264BF 		.word	-1083911477
 2480 0a94 448A65BF 		.word	-1083864508
 2481 0a98 6C3F66BF 		.word	-1083818132
 2482 0a9c 40F266BF 		.word	-1083772352
 2483 0aa0 BFA267BF 		.word	-1083727169
 2484 0aa4 E65068BF 		.word	-1083682586
 2485 0aa8 B4FC68BF 		.word	-1083638604
 2486 0aac 28A669BF 		.word	-1083595224
 2487 0ab0 3F4D6ABF 		.word	-1083552449
 2488 0ab4 F8F16ABF 		.word	-1083510280
 2489 0ab8 51946BBF 		.word	-1083468719
 2490 0abc 48346CBF 		.word	-1083427768
 2491 0ac0 DCD16CBF 		.word	-1083387428
 2492 0ac4 0C6D6DBF 		.word	-1083347700
 2493 0ac8 D5056EBF 		.word	-1083308587
 2494 0acc 369C6EBF 		.word	-1083270090
 2495 0ad0 2E306FBF 		.word	-1083232210
 2496 0ad4 BCC16FBF 		.word	-1083194948
 2497 0ad8 DD5070BF 		.word	-1083158307
 2498 0adc 90DD70BF 		.word	-1083122288
 2499 0ae0 D46771BF 		.word	-1083086892
 2500 0ae4 A7EF71BF 		.word	-1083052121
 2501 0ae8 097572BF 		.word	-1083017975
ARM GAS  C:\Users\ldu08\AppData\Local\Temp\cc4QOEDi.s 			page 71


 2502 0aec F7F772BF 		.word	-1082984457
 2503 0af0 717873BF 		.word	-1082951567
 2504 0af4 74F673BF 		.word	-1082919308
 2505 0af8 017274BF 		.word	-1082887679
 2506 0afc 15EB74BF 		.word	-1082856683
 2507 0b00 AF6175BF 		.word	-1082826321
 2508 0b04 CFD575BF 		.word	-1082796593
 2509 0b08 724776BF 		.word	-1082767502
 2510 0b0c 98B676BF 		.word	-1082739048
 2511 0b10 402377BF 		.word	-1082711232
 2512 0b14 698D77BF 		.word	-1082684055
 2513 0b18 11F577BF 		.word	-1082657519
 2514 0b1c 385A78BF 		.word	-1082631624
 2515 0b20 DBBC78BF 		.word	-1082606373
 2516 0b24 FC1C79BF 		.word	-1082581764
 2517 0b28 987A79BF 		.word	-1082557800
 2518 0b2c AED579BF 		.word	-1082534482
 2519 0b30 3E2E7ABF 		.word	-1082511810
 2520 0b34 47847ABF 		.word	-1082489785
 2521 0b38 C8D77ABF 		.word	-1082468408
 2522 0b3c C0287BBF 		.word	-1082447680
 2523 0b40 2D777BBF 		.word	-1082427603
 2524 0b44 11C37BBF 		.word	-1082408175
 2525 0b48 680C7CBF 		.word	-1082389400
 2526 0b4c 34537CBF 		.word	-1082371276
 2527 0b50 73977CBF 		.word	-1082353805
 2528 0b54 25D97CBF 		.word	-1082336987
 2529 0b58 48187DBF 		.word	-1082320824
 2530 0b5c DC547DBF 		.word	-1082305316
 2531 0b60 E18E7DBF 		.word	-1082290463
 2532 0b64 56C67DBF 		.word	-1082276266
 2533 0b68 3BFB7DBF 		.word	-1082262725
 2534 0b6c 8E2D7EBF 		.word	-1082249842
 2535 0b70 505D7EBF 		.word	-1082237616
 2536 0b74 7F8A7EBF 		.word	-1082226049
 2537 0b78 1CB57EBF 		.word	-1082215140
 2538 0b7c 26DD7EBF 		.word	-1082204890
 2539 0b80 9D027FBF 		.word	-1082195299
 2540 0b84 80257FBF 		.word	-1082186368
 2541 0b88 CE457FBF 		.word	-1082178098
 2542 0b8c 89637FBF 		.word	-1082170487
 2543 0b90 AE7E7FBF 		.word	-1082163538
 2544 0b94 3E977FBF 		.word	-1082157250
 2545 0b98 3AAD7FBF 		.word	-1082151622
 2546 0b9c 9FC07FBF 		.word	-1082146657
 2547 0ba0 6FD17FBF 		.word	-1082142353
 2548 0ba4 A9DF7FBF 		.word	-1082138711
 2549 0ba8 4EEB7FBF 		.word	-1082135730
 2550 0bac 5CF47FBF 		.word	-1082133412
 2551 0bb0 D3FA7FBF 		.word	-1082131757
 2552 0bb4 B5FE7FBF 		.word	-1082130763
 2553 0bb8 000080BF 		.word	-1082130432
 2554 0bbc B5FE7FBF 		.word	-1082130763
 2555 0bc0 D3FA7FBF 		.word	-1082131757
 2556 0bc4 5CF47FBF 		.word	-1082133412
 2557 0bc8 4EEB7FBF 		.word	-1082135730
 2558 0bcc A9DF7FBF 		.word	-1082138711
ARM GAS  C:\Users\ldu08\AppData\Local\Temp\cc4QOEDi.s 			page 72


 2559 0bd0 6FD17FBF 		.word	-1082142353
 2560 0bd4 9FC07FBF 		.word	-1082146657
 2561 0bd8 3AAD7FBF 		.word	-1082151622
 2562 0bdc 3E977FBF 		.word	-1082157250
 2563 0be0 AE7E7FBF 		.word	-1082163538
 2564 0be4 89637FBF 		.word	-1082170487
 2565 0be8 CE457FBF 		.word	-1082178098
 2566 0bec 80257FBF 		.word	-1082186368
 2567 0bf0 9D027FBF 		.word	-1082195299
 2568 0bf4 26DD7EBF 		.word	-1082204890
 2569 0bf8 1CB57EBF 		.word	-1082215140
 2570 0bfc 7F8A7EBF 		.word	-1082226049
 2571 0c00 505D7EBF 		.word	-1082237616
 2572 0c04 8E2D7EBF 		.word	-1082249842
 2573 0c08 3BFB7DBF 		.word	-1082262725
 2574 0c0c 56C67DBF 		.word	-1082276266
 2575 0c10 E18E7DBF 		.word	-1082290463
 2576 0c14 DC547DBF 		.word	-1082305316
 2577 0c18 48187DBF 		.word	-1082320824
 2578 0c1c 25D97CBF 		.word	-1082336987
 2579 0c20 73977CBF 		.word	-1082353805
 2580 0c24 34537CBF 		.word	-1082371276
 2581 0c28 680C7CBF 		.word	-1082389400
 2582 0c2c 11C37BBF 		.word	-1082408175
 2583 0c30 2D777BBF 		.word	-1082427603
 2584 0c34 C0287BBF 		.word	-1082447680
 2585 0c38 C8D77ABF 		.word	-1082468408
 2586 0c3c 47847ABF 		.word	-1082489785
 2587 0c40 3E2E7ABF 		.word	-1082511810
 2588 0c44 AED579BF 		.word	-1082534482
 2589 0c48 987A79BF 		.word	-1082557800
 2590 0c4c FC1C79BF 		.word	-1082581764
 2591 0c50 DBBC78BF 		.word	-1082606373
 2592 0c54 385A78BF 		.word	-1082631624
 2593 0c58 11F577BF 		.word	-1082657519
 2594 0c5c 698D77BF 		.word	-1082684055
 2595 0c60 402377BF 		.word	-1082711232
 2596 0c64 98B676BF 		.word	-1082739048
 2597 0c68 724776BF 		.word	-1082767502
 2598 0c6c CFD575BF 		.word	-1082796593
 2599 0c70 AF6175BF 		.word	-1082826321
 2600 0c74 15EB74BF 		.word	-1082856683
 2601 0c78 017274BF 		.word	-1082887679
 2602 0c7c 74F673BF 		.word	-1082919308
 2603 0c80 717873BF 		.word	-1082951567
 2604 0c84 F7F772BF 		.word	-1082984457
 2605 0c88 097572BF 		.word	-1083017975
 2606 0c8c A7EF71BF 		.word	-1083052121
 2607 0c90 D46771BF 		.word	-1083086892
 2608 0c94 90DD70BF 		.word	-1083122288
 2609 0c98 DD5070BF 		.word	-1083158307
 2610 0c9c BCC16FBF 		.word	-1083194948
 2611 0ca0 2E306FBF 		.word	-1083232210
 2612 0ca4 369C6EBF 		.word	-1083270090
 2613 0ca8 D5056EBF 		.word	-1083308587
 2614 0cac 0C6D6DBF 		.word	-1083347700
 2615 0cb0 DCD16CBF 		.word	-1083387428
ARM GAS  C:\Users\ldu08\AppData\Local\Temp\cc4QOEDi.s 			page 73


 2616 0cb4 48346CBF 		.word	-1083427768
 2617 0cb8 51946BBF 		.word	-1083468719
 2618 0cbc F8F16ABF 		.word	-1083510280
 2619 0cc0 3F4D6ABF 		.word	-1083552449
 2620 0cc4 28A669BF 		.word	-1083595224
 2621 0cc8 B4FC68BF 		.word	-1083638604
 2622 0ccc E65068BF 		.word	-1083682586
 2623 0cd0 BFA267BF 		.word	-1083727169
 2624 0cd4 40F266BF 		.word	-1083772352
 2625 0cd8 6C3F66BF 		.word	-1083818132
 2626 0cdc 448A65BF 		.word	-1083864508
 2627 0ce0 CBD264BF 		.word	-1083911477
 2628 0ce4 011964BF 		.word	-1083959039
 2629 0ce8 E95C63BF 		.word	-1084007191
 2630 0cec 859E62BF 		.word	-1084055931
 2631 0cf0 D7DD61BF 		.word	-1084105257
 2632 0cf4 E01A61BF 		.word	-1084155168
 2633 0cf8 A25560BF 		.word	-1084205662
 2634 0cfc 218E5FBF 		.word	-1084256735
 2635 0d00 5DC45EBF 		.word	-1084308387
 2636 0d04 58F85DBF 		.word	-1084360616
 2637 0d08 162A5DBF 		.word	-1084413418
 2638 0d0c 97595CBF 		.word	-1084466793
 2639 0d10 DE865BBF 		.word	-1084520738
 2640 0d14 EDB15ABF 		.word	-1084575251
 2641 0d18 C6DA59BF 		.word	-1084630330
 2642 0d1c 6C0159BF 		.word	-1084685972
 2643 0d20 E02558BF 		.word	-1084742176
 2644 0d24 254857BF 		.word	-1084798939
 2645 0d28 3D6856BF 		.word	-1084856259
 2646 0d2c 2A8655BF 		.word	-1084914134
 2647 0d30 EFA154BF 		.word	-1084972561
 2648 0d34 8DBB53BF 		.word	-1085031539
 2649 0d38 08D352BF 		.word	-1085091064
 2650 0d3c 62E851BF 		.word	-1085151134
 2651 0d40 9CFB50BF 		.word	-1085211748
 2652 0d44 B90C50BF 		.word	-1085272903
 2653 0d48 BD1B4FBF 		.word	-1085334595
 2654 0d4c A8284EBF 		.word	-1085396824
 2655 0d50 7E334DBF 		.word	-1085459586
 2656 0d54 423C4CBF 		.word	-1085522878
 2657 0d58 F4424BBF 		.word	-1085586700
 2658 0d5c 99474ABF 		.word	-1085651047
 2659 0d60 334A49BF 		.word	-1085715917
 2660 0d64 C44A48BF 		.word	-1085781308
 2661 0d68 4E4947BF 		.word	-1085847218
 2662 0d6c D54546BF 		.word	-1085913643
 2663 0d70 5B4045BF 		.word	-1085980581
 2664 0d74 E33844BF 		.word	-1086048029
 2665 0d78 6F2F43BF 		.word	-1086115985
 2666 0d7c 022442BF 		.word	-1086184446
 2667 0d80 9E1641BF 		.word	-1086253410
 2668 0d84 470740BF 		.word	-1086322873
 2669 0d88 00F63EBF 		.word	-1086392832
 2670 0d8c CAE23DBF 		.word	-1086463286
 2671 0d90 A9CD3CBF 		.word	-1086534231
 2672 0d94 9FB63BBF 		.word	-1086605665
ARM GAS  C:\Users\ldu08\AppData\Local\Temp\cc4QOEDi.s 			page 74


 2673 0d98 B09D3ABF 		.word	-1086677584
 2674 0d9c DE8239BF 		.word	-1086749986
 2675 0da0 2C6638BF 		.word	-1086822868
 2676 0da4 9D4737BF 		.word	-1086896227
 2677 0da8 342736BF 		.word	-1086970060
 2678 0dac F30435BF 		.word	-1087044365
 2679 0db0 DEE033BF 		.word	-1087119138
 2680 0db4 F8BA32BF 		.word	-1087194376
 2681 0db8 439331BF 		.word	-1087270077
 2682 0dbc C36930BF 		.word	-1087346237
 2683 0dc0 7B3E2FBF 		.word	-1087422853
 2684 0dc4 6D112EBF 		.word	-1087499923
 2685 0dc8 9CE22CBF 		.word	-1087577444
 2686 0dcc 0DB22BBF 		.word	-1087655411
 2687 0dd0 C17F2ABF 		.word	-1087733823
 2688 0dd4 BC4B29BF 		.word	-1087812676
 2689 0dd8 011628BF 		.word	-1087891967
 2690 0ddc 93DE26BF 		.word	-1087971693
 2691 0de0 76A525BF 		.word	-1088051850
 2692 0de4 AB6A24BF 		.word	-1088132437
 2693 0de8 382E23BF 		.word	-1088213448
 2694 0dec 1EF021BF 		.word	-1088294882
 2695 0df0 62B020BF 		.word	-1088376734
 2696 0df4 056F1FBF 		.word	-1088459003
 2697 0df8 0C2C1EBF 		.word	-1088541684
 2698 0dfc 7AE71CBF 		.word	-1088624774
 2699 0e00 52A11BBF 		.word	-1088708270
 2700 0e04 97591ABF 		.word	-1088792169
 2701 0e08 4D1019BF 		.word	-1088876467
 2702 0e0c 77C517BF 		.word	-1088961161
 2703 0e10 187916BF 		.word	-1089046248
 2704 0e14 342B15BF 		.word	-1089131724
 2705 0e18 CEDB13BF 		.word	-1089217586
 2706 0e1c E98A12BF 		.word	-1089303831
 2707 0e20 8A3811BF 		.word	-1089390454
 2708 0e24 B2E40FBF 		.word	-1089477454
 2709 0e28 678F0EBF 		.word	-1089564825
 2710 0e2c AA380DBF 		.word	-1089652566
 2711 0e30 80E00BBF 		.word	-1089740672
 2712 0e34 EC860ABF 		.word	-1089829140
 2713 0e38 F22B09BF 		.word	-1089917966
 2714 0e3c 95CF07BF 		.word	-1090007147
 2715 0e40 D87106BF 		.word	-1090096680
 2716 0e44 C01205BF 		.word	-1090186560
 2717 0e48 4FB203BF 		.word	-1090276785
 2718 0e4c 8A5002BF 		.word	-1090367350
 2719 0e50 73ED00BF 		.word	-1090458253
 2720 0e54 1E12FFBE 		.word	-1090579938
 2721 0e58 C246FCBE 		.word	-1090763070
 2722 0e5c D978F9BE 		.word	-1090946855
 2723 0e60 6BA8F6BE 		.word	-1091131285
 2724 0e64 7ED5F3BE 		.word	-1091316354
 2725 0e68 1B00F1BE 		.word	-1091502053
 2726 0e6c 4828EEBE 		.word	-1091688376
 2727 0e70 0D4EEBBE 		.word	-1091875315
 2728 0e74 7171E8BE 		.word	-1092062863
 2729 0e78 7C92E5BE 		.word	-1092251012
ARM GAS  C:\Users\ldu08\AppData\Local\Temp\cc4QOEDi.s 			page 75


 2730 0e7c 35B1E2BE 		.word	-1092439755
 2731 0e80 A3CDDFBE 		.word	-1092629085
 2732 0e84 CFE7DCBE 		.word	-1092818993
 2733 0e88 BEFFD9BE 		.word	-1093009474
 2734 0e8c 7A15D7BE 		.word	-1093200518
 2735 0e90 0929D4BE 		.word	-1093392119
 2736 0e94 733AD1BE 		.word	-1093584269
 2737 0e98 C149CEBE 		.word	-1093776959
 2738 0e9c F856CBBE 		.word	-1093970184
 2739 0ea0 2162C8BE 		.word	-1094163935
 2740 0ea4 446BC5BE 		.word	-1094358204
 2741 0ea8 6872C2BE 		.word	-1094552984
 2742 0eac 9577BFBE 		.word	-1094748267
 2743 0eb0 D27ABCBE 		.word	-1094944046
 2744 0eb4 287CB9BE 		.word	-1095140312
 2745 0eb8 9E7BB6BE 		.word	-1095337058
 2746 0ebc 3C79B3BE 		.word	-1095534276
 2747 0ec0 0975B0BE 		.word	-1095731959
 2748 0ec4 0F6FADBE 		.word	-1095930097
 2749 0ec8 5367AABE 		.word	-1096128685
 2750 0ecc DE5DA7BE 		.word	-1096327714
 2751 0ed0 B952A4BE 		.word	-1096527175
 2752 0ed4 EA45A1BE 		.word	-1096727062
 2753 0ed8 7A379EBE 		.word	-1096927366
 2754 0edc 70279BBE 		.word	-1097128080
 2755 0ee0 D51598BE 		.word	-1097329195
 2756 0ee4 B10295BE 		.word	-1097530703
 2757 0ee8 0BEE91BE 		.word	-1097732597
 2758 0eec ECD78EBE 		.word	-1097934868
 2759 0ef0 5BC08BBE 		.word	-1098137509
 2760 0ef4 61A788BE 		.word	-1098340511
 2761 0ef8 058D85BE 		.word	-1098543867
 2762 0efc 4F7182BE 		.word	-1098747569
 2763 0f00 90A87EBE 		.word	-1098995568
 2764 0f04 EF6B78BE 		.word	-1099404305
 2765 0f08 CB2C72BE 		.word	-1099813685
 2766 0f0c 35EB6BBE 		.word	-1100223691
 2767 0f10 3CA765BE 		.word	-1100634308
 2768 0f14 F1605FBE 		.word	-1101045519
 2769 0f18 641859BE 		.word	-1101457308
 2770 0f1c A6CD52BE 		.word	-1101869658
 2771 0f20 C6804CBE 		.word	-1102282554
 2772 0f24 D53146BE 		.word	-1102695979
 2773 0f28 E3E03FBE 		.word	-1103109917
 2774 0f2c 018E39BE 		.word	-1103524351
 2775 0f30 3F3933BE 		.word	-1103939265
 2776 0f34 ACE22CBE 		.word	-1104354644
 2777 0f38 5C8A26BE 		.word	-1104770468
 2778 0f3c 5C3020BE 		.word	-1105186724
 2779 0f40 BDD419BE 		.word	-1105603395
 2780 0f44 907713BE 		.word	-1106020464
 2781 0f48 E6180DBE 		.word	-1106437914
 2782 0f4c CFB806BE 		.word	-1106855729
 2783 0f50 5B5700BE 		.word	-1107273893
 2784 0f54 36E9F3BD 		.word	-1108088522
 2785 0f58 3F21E7BD 		.word	-1108926145
 2786 0f5c F256DABD 		.word	-1109764366
ARM GAS  C:\Users\ldu08\AppData\Local\Temp\cc4QOEDi.s 			page 76


 2787 0f60 718ACDBD 		.word	-1110603151
 2788 0f64 DCBBC0BD 		.word	-1111442468
 2789 0f68 54EBB3BD 		.word	-1112282284
 2790 0f6c FA18A7BD 		.word	-1113122566
 2791 0f70 F1449ABD 		.word	-1113963279
 2792 0f74 586F8DBD 		.word	-1114804392
 2793 0f78 519880BD 		.word	-1115645871
 2794 0f7c F97F67BD 		.word	-1117290503
 2795 0f80 FDCC4DBD 		.word	-1118974723
 2796 0f84 EA1734BD 		.word	-1120659478
 2797 0f88 05611ABD 		.word	-1122344699
 2798 0f8c 92A800BD 		.word	-1124030318
 2799 0f90 A4DDCDBC 		.word	-1127359068
 2800 0f94 0B689ABC 		.word	-1130731509
 2801 0f98 CBE14DBC 		.word	-1135746613
 2802 0f9c CCE2CDBB 		.word	-1144134964
 2803              		.section	.data.ema_alpha,"aw"
 2804              		.align	2
 2805              		.set	.LANCHOR5,. + 0
 2808              	ema_alpha:
 2809 0000 CDCCCC3D 		.word	1036831949
 2810              		.section	.rodata.filter_taps,"a"
 2811              		.align	3
 2812              		.set	.LANCHOR8,. + 0
 2815              	filter_taps:
 2816 0000 00000000 		.word	0
 2817 0004 0000F03F 		.word	1072693248
 2818 0008 00000000 		.word	0
 2819 000c 00000000 		.word	0
 2820 0010 00000000 		.word	0
 2821 0014 00000000 		.word	0
 2822 0018 00000000 		.word	0
 2823 001c 00000000 		.word	0
 2824 0020 00000000 		.word	0
 2825 0024 00000000 		.word	0
 2826              		.text
 2827              	.Letext0:
 2828              		.file 3 "Drivers/CMSIS/Device/ST/STM32L4xx/Include/stm32l496xx.h"
 2829              		.file 4 "c:\\users\\ldu08\\appdata\\roaming\\code\\user\\globalstorage\\bmd.stm32-for-vscode\\@xpa
 2830              		.file 5 "c:\\users\\ldu08\\appdata\\roaming\\code\\user\\globalstorage\\bmd.stm32-for-vscode\\@xpa
 2831              		.file 6 "Drivers/CMSIS/Device/ST/STM32L4xx/Include/stm32l4xx.h"
 2832              		.file 7 "Drivers/STM32L4xx_HAL_Driver/Inc/stm32l4xx_hal_def.h"
 2833              		.file 8 "Drivers/STM32L4xx_HAL_Driver/Inc/stm32l4xx_hal_rcc.h"
 2834              		.file 9 "Drivers/STM32L4xx_HAL_Driver/Inc/stm32l4xx_hal_rcc_ex.h"
 2835              		.file 10 "Drivers/STM32L4xx_HAL_Driver/Inc/stm32l4xx_hal_gpio.h"
 2836              		.file 11 "Drivers/STM32L4xx_HAL_Driver/Inc/stm32l4xx_hal_dma.h"
 2837              		.file 12 "Drivers/STM32L4xx_HAL_Driver/Inc/stm32l4xx_hal_adc.h"
 2838              		.file 13 "Drivers/STM32L4xx_HAL_Driver/Inc/stm32l4xx_hal_adc_ex.h"
 2839              		.file 14 "Drivers/STM32L4xx_HAL_Driver/Inc/stm32l4xx_hal_dac.h"
 2840              		.file 15 "Drivers/STM32L4xx_HAL_Driver/Inc/stm32l4xx_ll_usb.h"
 2841              		.file 16 "Drivers/STM32L4xx_HAL_Driver/Inc/stm32l4xx_hal_pcd.h"
 2842              		.file 17 "Drivers/STM32L4xx_HAL_Driver/Inc/stm32l4xx_hal_tim.h"
 2843              		.file 18 "Drivers/STM32L4xx_HAL_Driver/Inc/stm32l4xx_hal_uart.h"
 2844              		.file 19 "Drivers/STM32L4xx_HAL_Driver/Inc/stm32l4xx_hal_pwr.h"
 2845              		.file 20 "Drivers/STM32L4xx_HAL_Driver/Inc/stm32l4xx_hal_pwr_ex.h"
 2846              		.file 21 "Drivers/STM32L4xx_HAL_Driver/Inc/stm32l4xx_hal_tim_ex.h"
 2847              		.file 22 "Drivers/STM32L4xx_HAL_Driver/Inc/stm32l4xx_hal_cortex.h"
ARM GAS  C:\Users\ldu08\AppData\Local\Temp\cc4QOEDi.s 			page 77


 2848              		.file 23 "Drivers/STM32L4xx_HAL_Driver/Inc/stm32l4xx_hal.h"
 2849              		.file 24 "<built-in>"
ARM GAS  C:\Users\ldu08\AppData\Local\Temp\cc4QOEDi.s 			page 78

