ARM GAS  C:\Users\ldu08\AppData\Local\Temp\ccIB8tUx.s 			page 1


   1              		.cpu cortex-m4
   2              		.arch armv7e-m
   3              		.fpu fpv4-sp-d16
   4              		.eabi_attribute 27, 1
   5              		.eabi_attribute 28, 1
   6              		.eabi_attribute 20, 1
   7              		.eabi_attribute 21, 1
   8              		.eabi_attribute 23, 3
   9              		.eabi_attribute 24, 1
  10              		.eabi_attribute 25, 1
  11              		.eabi_attribute 26, 1
  12              		.eabi_attribute 30, 1
  13              		.eabi_attribute 34, 1
  14              		.eabi_attribute 18, 4
  15              		.file	"stm32l4xx_hal_dac_ex.c"
  16              		.text
  17              	.Ltext0:
  18              		.cfi_sections	.debug_frame
  19              		.section	.text.HAL_DACEx_TriangleWaveGenerate,"ax",%progbits
  20              		.align	1
  21              		.global	HAL_DACEx_TriangleWaveGenerate
  22              		.syntax unified
  23              		.thumb
  24              		.thumb_func
  26              	HAL_DACEx_TriangleWaveGenerate:
  27              	.LVL0:
  28              	.LFB321:
  29              		.file 1 "Drivers/STM32L4xx_HAL_Driver/Src/stm32l4xx_hal_dac_ex.c"
   1:Drivers/STM32L4xx_HAL_Driver/Src/stm32l4xx_hal_dac_ex.c **** /**
   2:Drivers/STM32L4xx_HAL_Driver/Src/stm32l4xx_hal_dac_ex.c ****   ******************************************************************************
   3:Drivers/STM32L4xx_HAL_Driver/Src/stm32l4xx_hal_dac_ex.c ****   * @file    stm32l4xx_hal_dac_ex.c
   4:Drivers/STM32L4xx_HAL_Driver/Src/stm32l4xx_hal_dac_ex.c ****   * @author  MCD Application Team
   5:Drivers/STM32L4xx_HAL_Driver/Src/stm32l4xx_hal_dac_ex.c ****   * @brief   DAC HAL module driver.
   6:Drivers/STM32L4xx_HAL_Driver/Src/stm32l4xx_hal_dac_ex.c ****   *          This file provides firmware functions to manage the extended
   7:Drivers/STM32L4xx_HAL_Driver/Src/stm32l4xx_hal_dac_ex.c ****   *          functionalities of the DAC peripheral.
   8:Drivers/STM32L4xx_HAL_Driver/Src/stm32l4xx_hal_dac_ex.c ****   *
   9:Drivers/STM32L4xx_HAL_Driver/Src/stm32l4xx_hal_dac_ex.c ****   *
  10:Drivers/STM32L4xx_HAL_Driver/Src/stm32l4xx_hal_dac_ex.c ****   ******************************************************************************
  11:Drivers/STM32L4xx_HAL_Driver/Src/stm32l4xx_hal_dac_ex.c ****   * @attention
  12:Drivers/STM32L4xx_HAL_Driver/Src/stm32l4xx_hal_dac_ex.c ****   *
  13:Drivers/STM32L4xx_HAL_Driver/Src/stm32l4xx_hal_dac_ex.c ****   * Copyright (c) 2017 STMicroelectronics.
  14:Drivers/STM32L4xx_HAL_Driver/Src/stm32l4xx_hal_dac_ex.c ****   * All rights reserved.
  15:Drivers/STM32L4xx_HAL_Driver/Src/stm32l4xx_hal_dac_ex.c ****   *
  16:Drivers/STM32L4xx_HAL_Driver/Src/stm32l4xx_hal_dac_ex.c ****   * This software is licensed under terms that can be found in the LICENSE file
  17:Drivers/STM32L4xx_HAL_Driver/Src/stm32l4xx_hal_dac_ex.c ****   * in the root directory of this software component.
  18:Drivers/STM32L4xx_HAL_Driver/Src/stm32l4xx_hal_dac_ex.c ****   * If no LICENSE file comes with this software, it is provided AS-IS.
  19:Drivers/STM32L4xx_HAL_Driver/Src/stm32l4xx_hal_dac_ex.c ****   *
  20:Drivers/STM32L4xx_HAL_Driver/Src/stm32l4xx_hal_dac_ex.c ****   ******************************************************************************
  21:Drivers/STM32L4xx_HAL_Driver/Src/stm32l4xx_hal_dac_ex.c ****   @verbatim
  22:Drivers/STM32L4xx_HAL_Driver/Src/stm32l4xx_hal_dac_ex.c ****   ==============================================================================
  23:Drivers/STM32L4xx_HAL_Driver/Src/stm32l4xx_hal_dac_ex.c ****                       ##### How to use this driver #####
  24:Drivers/STM32L4xx_HAL_Driver/Src/stm32l4xx_hal_dac_ex.c ****   ==============================================================================
  25:Drivers/STM32L4xx_HAL_Driver/Src/stm32l4xx_hal_dac_ex.c ****     [..]
  26:Drivers/STM32L4xx_HAL_Driver/Src/stm32l4xx_hal_dac_ex.c ****      *** Dual mode IO operation ***
  27:Drivers/STM32L4xx_HAL_Driver/Src/stm32l4xx_hal_dac_ex.c ****      ==============================
  28:Drivers/STM32L4xx_HAL_Driver/Src/stm32l4xx_hal_dac_ex.c ****       (+) When Dual mode is enabled (i.e. DAC Channel1 and Channel2 are used simultaneously) :
  29:Drivers/STM32L4xx_HAL_Driver/Src/stm32l4xx_hal_dac_ex.c ****           Use HAL_DACEx_DualGetValue() to get digital data to be converted and use
ARM GAS  C:\Users\ldu08\AppData\Local\Temp\ccIB8tUx.s 			page 2


  30:Drivers/STM32L4xx_HAL_Driver/Src/stm32l4xx_hal_dac_ex.c ****           HAL_DACEx_DualSetValue() to set digital value to converted simultaneously in
  31:Drivers/STM32L4xx_HAL_Driver/Src/stm32l4xx_hal_dac_ex.c ****           Channel 1 and Channel 2.
  32:Drivers/STM32L4xx_HAL_Driver/Src/stm32l4xx_hal_dac_ex.c **** 
  33:Drivers/STM32L4xx_HAL_Driver/Src/stm32l4xx_hal_dac_ex.c ****      *** Signal generation operation ***
  34:Drivers/STM32L4xx_HAL_Driver/Src/stm32l4xx_hal_dac_ex.c ****      ===================================
  35:Drivers/STM32L4xx_HAL_Driver/Src/stm32l4xx_hal_dac_ex.c ****       (+) Use HAL_DACEx_TriangleWaveGenerate() to generate Triangle signal.
  36:Drivers/STM32L4xx_HAL_Driver/Src/stm32l4xx_hal_dac_ex.c ****       (+) Use HAL_DACEx_NoiseWaveGenerate() to generate Noise signal.
  37:Drivers/STM32L4xx_HAL_Driver/Src/stm32l4xx_hal_dac_ex.c **** 
  38:Drivers/STM32L4xx_HAL_Driver/Src/stm32l4xx_hal_dac_ex.c ****       (+) HAL_DACEx_SelfCalibrate to calibrate one DAC channel.
  39:Drivers/STM32L4xx_HAL_Driver/Src/stm32l4xx_hal_dac_ex.c ****       (+) HAL_DACEx_SetUserTrimming to set user trimming value.
  40:Drivers/STM32L4xx_HAL_Driver/Src/stm32l4xx_hal_dac_ex.c ****       (+) HAL_DACEx_GetTrimOffset to retrieve trimming value (factory setting
  41:Drivers/STM32L4xx_HAL_Driver/Src/stm32l4xx_hal_dac_ex.c ****           after reset, user setting if HAL_DACEx_SetUserTrimming have been used
  42:Drivers/STM32L4xx_HAL_Driver/Src/stm32l4xx_hal_dac_ex.c ****           at least one time after reset).
  43:Drivers/STM32L4xx_HAL_Driver/Src/stm32l4xx_hal_dac_ex.c **** 
  44:Drivers/STM32L4xx_HAL_Driver/Src/stm32l4xx_hal_dac_ex.c ****  @endverbatim
  45:Drivers/STM32L4xx_HAL_Driver/Src/stm32l4xx_hal_dac_ex.c ****   ******************************************************************************
  46:Drivers/STM32L4xx_HAL_Driver/Src/stm32l4xx_hal_dac_ex.c ****   */
  47:Drivers/STM32L4xx_HAL_Driver/Src/stm32l4xx_hal_dac_ex.c **** 
  48:Drivers/STM32L4xx_HAL_Driver/Src/stm32l4xx_hal_dac_ex.c **** 
  49:Drivers/STM32L4xx_HAL_Driver/Src/stm32l4xx_hal_dac_ex.c **** /* Includes ------------------------------------------------------------------*/
  50:Drivers/STM32L4xx_HAL_Driver/Src/stm32l4xx_hal_dac_ex.c **** #include "stm32l4xx_hal.h"
  51:Drivers/STM32L4xx_HAL_Driver/Src/stm32l4xx_hal_dac_ex.c **** 
  52:Drivers/STM32L4xx_HAL_Driver/Src/stm32l4xx_hal_dac_ex.c **** /** @addtogroup STM32L4xx_HAL_Driver
  53:Drivers/STM32L4xx_HAL_Driver/Src/stm32l4xx_hal_dac_ex.c ****   * @{
  54:Drivers/STM32L4xx_HAL_Driver/Src/stm32l4xx_hal_dac_ex.c ****   */
  55:Drivers/STM32L4xx_HAL_Driver/Src/stm32l4xx_hal_dac_ex.c **** 
  56:Drivers/STM32L4xx_HAL_Driver/Src/stm32l4xx_hal_dac_ex.c **** #ifdef HAL_DAC_MODULE_ENABLED
  57:Drivers/STM32L4xx_HAL_Driver/Src/stm32l4xx_hal_dac_ex.c **** 
  58:Drivers/STM32L4xx_HAL_Driver/Src/stm32l4xx_hal_dac_ex.c **** #if defined(DAC1)
  59:Drivers/STM32L4xx_HAL_Driver/Src/stm32l4xx_hal_dac_ex.c **** 
  60:Drivers/STM32L4xx_HAL_Driver/Src/stm32l4xx_hal_dac_ex.c **** /** @defgroup DACEx DACEx
  61:Drivers/STM32L4xx_HAL_Driver/Src/stm32l4xx_hal_dac_ex.c ****   * @brief DAC Extended HAL module driver
  62:Drivers/STM32L4xx_HAL_Driver/Src/stm32l4xx_hal_dac_ex.c ****   * @{
  63:Drivers/STM32L4xx_HAL_Driver/Src/stm32l4xx_hal_dac_ex.c ****   */
  64:Drivers/STM32L4xx_HAL_Driver/Src/stm32l4xx_hal_dac_ex.c **** 
  65:Drivers/STM32L4xx_HAL_Driver/Src/stm32l4xx_hal_dac_ex.c **** /* Private typedef -----------------------------------------------------------*/
  66:Drivers/STM32L4xx_HAL_Driver/Src/stm32l4xx_hal_dac_ex.c **** /* Private define ------------------------------------------------------------*/
  67:Drivers/STM32L4xx_HAL_Driver/Src/stm32l4xx_hal_dac_ex.c **** /* Private macro -------------------------------------------------------------*/
  68:Drivers/STM32L4xx_HAL_Driver/Src/stm32l4xx_hal_dac_ex.c **** /* Private variables ---------------------------------------------------------*/
  69:Drivers/STM32L4xx_HAL_Driver/Src/stm32l4xx_hal_dac_ex.c **** /* Private function prototypes -----------------------------------------------*/
  70:Drivers/STM32L4xx_HAL_Driver/Src/stm32l4xx_hal_dac_ex.c **** /* Exported functions --------------------------------------------------------*/
  71:Drivers/STM32L4xx_HAL_Driver/Src/stm32l4xx_hal_dac_ex.c **** 
  72:Drivers/STM32L4xx_HAL_Driver/Src/stm32l4xx_hal_dac_ex.c **** /** @defgroup DACEx_Exported_Functions DACEx Exported Functions
  73:Drivers/STM32L4xx_HAL_Driver/Src/stm32l4xx_hal_dac_ex.c ****   * @{
  74:Drivers/STM32L4xx_HAL_Driver/Src/stm32l4xx_hal_dac_ex.c ****   */
  75:Drivers/STM32L4xx_HAL_Driver/Src/stm32l4xx_hal_dac_ex.c **** 
  76:Drivers/STM32L4xx_HAL_Driver/Src/stm32l4xx_hal_dac_ex.c **** /** @defgroup DACEx_Exported_Functions_Group2 IO operation functions
  77:Drivers/STM32L4xx_HAL_Driver/Src/stm32l4xx_hal_dac_ex.c ****  *  @brief    Extended IO operation functions
  78:Drivers/STM32L4xx_HAL_Driver/Src/stm32l4xx_hal_dac_ex.c ****  *
  79:Drivers/STM32L4xx_HAL_Driver/Src/stm32l4xx_hal_dac_ex.c **** @verbatim
  80:Drivers/STM32L4xx_HAL_Driver/Src/stm32l4xx_hal_dac_ex.c ****   ==============================================================================
  81:Drivers/STM32L4xx_HAL_Driver/Src/stm32l4xx_hal_dac_ex.c ****                  ##### Extended features functions #####
  82:Drivers/STM32L4xx_HAL_Driver/Src/stm32l4xx_hal_dac_ex.c ****   ==============================================================================
  83:Drivers/STM32L4xx_HAL_Driver/Src/stm32l4xx_hal_dac_ex.c ****     [..]  This section provides functions allowing to:
  84:Drivers/STM32L4xx_HAL_Driver/Src/stm32l4xx_hal_dac_ex.c ****       (+) Start conversion.
  85:Drivers/STM32L4xx_HAL_Driver/Src/stm32l4xx_hal_dac_ex.c ****       (+) Stop conversion.
  86:Drivers/STM32L4xx_HAL_Driver/Src/stm32l4xx_hal_dac_ex.c ****       (+) Start conversion and enable DMA transfer.
ARM GAS  C:\Users\ldu08\AppData\Local\Temp\ccIB8tUx.s 			page 3


  87:Drivers/STM32L4xx_HAL_Driver/Src/stm32l4xx_hal_dac_ex.c ****       (+) Stop conversion and disable DMA transfer.
  88:Drivers/STM32L4xx_HAL_Driver/Src/stm32l4xx_hal_dac_ex.c ****       (+) Get result of conversion.
  89:Drivers/STM32L4xx_HAL_Driver/Src/stm32l4xx_hal_dac_ex.c ****       (+) Get result of dual mode conversion.
  90:Drivers/STM32L4xx_HAL_Driver/Src/stm32l4xx_hal_dac_ex.c **** 
  91:Drivers/STM32L4xx_HAL_Driver/Src/stm32l4xx_hal_dac_ex.c **** @endverbatim
  92:Drivers/STM32L4xx_HAL_Driver/Src/stm32l4xx_hal_dac_ex.c ****   * @{
  93:Drivers/STM32L4xx_HAL_Driver/Src/stm32l4xx_hal_dac_ex.c ****   */
  94:Drivers/STM32L4xx_HAL_Driver/Src/stm32l4xx_hal_dac_ex.c **** 
  95:Drivers/STM32L4xx_HAL_Driver/Src/stm32l4xx_hal_dac_ex.c **** /**
  96:Drivers/STM32L4xx_HAL_Driver/Src/stm32l4xx_hal_dac_ex.c ****   * @brief  Enable or disable the selected DAC channel wave generation.
  97:Drivers/STM32L4xx_HAL_Driver/Src/stm32l4xx_hal_dac_ex.c ****   * @param  hdac pointer to a DAC_HandleTypeDef structure that contains
  98:Drivers/STM32L4xx_HAL_Driver/Src/stm32l4xx_hal_dac_ex.c ****   *         the configuration information for the specified DAC.
  99:Drivers/STM32L4xx_HAL_Driver/Src/stm32l4xx_hal_dac_ex.c ****   * @param  Channel The selected DAC channel.
 100:Drivers/STM32L4xx_HAL_Driver/Src/stm32l4xx_hal_dac_ex.c ****   *          This parameter can be one of the following values:
 101:Drivers/STM32L4xx_HAL_Driver/Src/stm32l4xx_hal_dac_ex.c ****   *            @arg DAC_CHANNEL_1: DAC Channel1 selected
 102:Drivers/STM32L4xx_HAL_Driver/Src/stm32l4xx_hal_dac_ex.c ****   *            @arg DAC_CHANNEL_2: DAC Channel2 selected
 103:Drivers/STM32L4xx_HAL_Driver/Src/stm32l4xx_hal_dac_ex.c ****   * @param  Amplitude Select max triangle amplitude.
 104:Drivers/STM32L4xx_HAL_Driver/Src/stm32l4xx_hal_dac_ex.c ****   *          This parameter can be one of the following values:
 105:Drivers/STM32L4xx_HAL_Driver/Src/stm32l4xx_hal_dac_ex.c ****   *            @arg DAC_TRIANGLEAMPLITUDE_1: Select max triangle amplitude of 1
 106:Drivers/STM32L4xx_HAL_Driver/Src/stm32l4xx_hal_dac_ex.c ****   *            @arg DAC_TRIANGLEAMPLITUDE_3: Select max triangle amplitude of 3
 107:Drivers/STM32L4xx_HAL_Driver/Src/stm32l4xx_hal_dac_ex.c ****   *            @arg DAC_TRIANGLEAMPLITUDE_7: Select max triangle amplitude of 7
 108:Drivers/STM32L4xx_HAL_Driver/Src/stm32l4xx_hal_dac_ex.c ****   *            @arg DAC_TRIANGLEAMPLITUDE_15: Select max triangle amplitude of 15
 109:Drivers/STM32L4xx_HAL_Driver/Src/stm32l4xx_hal_dac_ex.c ****   *            @arg DAC_TRIANGLEAMPLITUDE_31: Select max triangle amplitude of 31
 110:Drivers/STM32L4xx_HAL_Driver/Src/stm32l4xx_hal_dac_ex.c ****   *            @arg DAC_TRIANGLEAMPLITUDE_63: Select max triangle amplitude of 63
 111:Drivers/STM32L4xx_HAL_Driver/Src/stm32l4xx_hal_dac_ex.c ****   *            @arg DAC_TRIANGLEAMPLITUDE_127: Select max triangle amplitude of 127
 112:Drivers/STM32L4xx_HAL_Driver/Src/stm32l4xx_hal_dac_ex.c ****   *            @arg DAC_TRIANGLEAMPLITUDE_255: Select max triangle amplitude of 255
 113:Drivers/STM32L4xx_HAL_Driver/Src/stm32l4xx_hal_dac_ex.c ****   *            @arg DAC_TRIANGLEAMPLITUDE_511: Select max triangle amplitude of 511
 114:Drivers/STM32L4xx_HAL_Driver/Src/stm32l4xx_hal_dac_ex.c ****   *            @arg DAC_TRIANGLEAMPLITUDE_1023: Select max triangle amplitude of 1023
 115:Drivers/STM32L4xx_HAL_Driver/Src/stm32l4xx_hal_dac_ex.c ****   *            @arg DAC_TRIANGLEAMPLITUDE_2047: Select max triangle amplitude of 2047
 116:Drivers/STM32L4xx_HAL_Driver/Src/stm32l4xx_hal_dac_ex.c ****   *            @arg DAC_TRIANGLEAMPLITUDE_4095: Select max triangle amplitude of 4095
 117:Drivers/STM32L4xx_HAL_Driver/Src/stm32l4xx_hal_dac_ex.c ****   * @retval HAL status
 118:Drivers/STM32L4xx_HAL_Driver/Src/stm32l4xx_hal_dac_ex.c ****   */
 119:Drivers/STM32L4xx_HAL_Driver/Src/stm32l4xx_hal_dac_ex.c **** HAL_StatusTypeDef HAL_DACEx_TriangleWaveGenerate(DAC_HandleTypeDef *hdac, uint32_t Channel, uint32_
 120:Drivers/STM32L4xx_HAL_Driver/Src/stm32l4xx_hal_dac_ex.c **** {
  30              		.loc 1 120 1 view -0
  31              		.cfi_startproc
  32              		@ args = 0, pretend = 0, frame = 0
  33              		@ frame_needed = 0, uses_anonymous_args = 0
  34              		.loc 1 120 1 is_stmt 0 view .LVU1
  35 0000 0346     		mov	r3, r0
 121:Drivers/STM32L4xx_HAL_Driver/Src/stm32l4xx_hal_dac_ex.c ****   /* Check the parameters */
 122:Drivers/STM32L4xx_HAL_Driver/Src/stm32l4xx_hal_dac_ex.c ****   assert_param(IS_DAC_CHANNEL(Channel));
  36              		.loc 1 122 3 is_stmt 1 view .LVU2
 123:Drivers/STM32L4xx_HAL_Driver/Src/stm32l4xx_hal_dac_ex.c ****   assert_param(IS_DAC_LFSR_UNMASK_TRIANGLE_AMPLITUDE(Amplitude));
  37              		.loc 1 123 3 view .LVU3
 124:Drivers/STM32L4xx_HAL_Driver/Src/stm32l4xx_hal_dac_ex.c **** 
 125:Drivers/STM32L4xx_HAL_Driver/Src/stm32l4xx_hal_dac_ex.c ****   /* Process locked */
 126:Drivers/STM32L4xx_HAL_Driver/Src/stm32l4xx_hal_dac_ex.c ****   __HAL_LOCK(hdac);
  38              		.loc 1 126 3 view .LVU4
  39              		.loc 1 126 3 view .LVU5
  40 0002 4079     		ldrb	r0, [r0, #5]	@ zero_extendqisi2
  41              	.LVL1:
  42              		.loc 1 126 3 is_stmt 0 view .LVU6
  43 0004 0128     		cmp	r0, #1
  44 0006 1AD0     		beq	.L3
 120:Drivers/STM32L4xx_HAL_Driver/Src/stm32l4xx_hal_dac_ex.c ****   /* Check the parameters */
  45              		.loc 1 120 1 discriminator 2 view .LVU7
ARM GAS  C:\Users\ldu08\AppData\Local\Temp\ccIB8tUx.s 			page 4


  46 0008 10B5     		push	{r4, lr}
  47              		.cfi_def_cfa_offset 8
  48              		.cfi_offset 4, -8
  49              		.cfi_offset 14, -4
  50              		.loc 1 126 3 is_stmt 1 discriminator 2 view .LVU8
  51 000a 4FF0010E 		mov	lr, #1
  52 000e 83F805E0 		strb	lr, [r3, #5]
  53              		.loc 1 126 3 discriminator 2 view .LVU9
 127:Drivers/STM32L4xx_HAL_Driver/Src/stm32l4xx_hal_dac_ex.c **** 
 128:Drivers/STM32L4xx_HAL_Driver/Src/stm32l4xx_hal_dac_ex.c ****   /* Change DAC state */
 129:Drivers/STM32L4xx_HAL_Driver/Src/stm32l4xx_hal_dac_ex.c ****   hdac->State = HAL_DAC_STATE_BUSY;
  54              		.loc 1 129 3 discriminator 2 view .LVU10
  55              		.loc 1 129 15 is_stmt 0 discriminator 2 view .LVU11
  56 0012 0220     		movs	r0, #2
  57 0014 1871     		strb	r0, [r3, #4]
 130:Drivers/STM32L4xx_HAL_Driver/Src/stm32l4xx_hal_dac_ex.c **** 
 131:Drivers/STM32L4xx_HAL_Driver/Src/stm32l4xx_hal_dac_ex.c ****   /* Enable the triangle wave generation for the selected DAC channel */
 132:Drivers/STM32L4xx_HAL_Driver/Src/stm32l4xx_hal_dac_ex.c ****   MODIFY_REG(hdac->Instance->CR, ((DAC_CR_WAVE1) | (DAC_CR_MAMP1)) << (Channel & 0x10UL), (DAC_CR_W
  58              		.loc 1 132 3 is_stmt 1 discriminator 2 view .LVU12
  59 0016 1C68     		ldr	r4, [r3]
  60 0018 2068     		ldr	r0, [r4]
  61 001a 01F01001 		and	r1, r1, #16
  62              	.LVL2:
  63              		.loc 1 132 3 is_stmt 0 discriminator 2 view .LVU13
  64 001e 4FF47C6C 		mov	ip, #4032
  65 0022 0CFA01FC 		lsl	ip, ip, r1
  66 0026 20EA0C00 		bic	r0, r0, ip
  67 002a 42F08002 		orr	r2, r2, #128
  68              	.LVL3:
  69              		.loc 1 132 3 discriminator 2 view .LVU14
  70 002e 8A40     		lsls	r2, r2, r1
  71 0030 0243     		orrs	r2, r2, r0
  72 0032 2260     		str	r2, [r4]
 133:Drivers/STM32L4xx_HAL_Driver/Src/stm32l4xx_hal_dac_ex.c **** 
 134:Drivers/STM32L4xx_HAL_Driver/Src/stm32l4xx_hal_dac_ex.c ****   /* Change DAC state */
 135:Drivers/STM32L4xx_HAL_Driver/Src/stm32l4xx_hal_dac_ex.c ****   hdac->State = HAL_DAC_STATE_READY;
  73              		.loc 1 135 3 is_stmt 1 discriminator 2 view .LVU15
  74              		.loc 1 135 15 is_stmt 0 discriminator 2 view .LVU16
  75 0034 83F804E0 		strb	lr, [r3, #4]
 136:Drivers/STM32L4xx_HAL_Driver/Src/stm32l4xx_hal_dac_ex.c **** 
 137:Drivers/STM32L4xx_HAL_Driver/Src/stm32l4xx_hal_dac_ex.c ****   /* Process unlocked */
 138:Drivers/STM32L4xx_HAL_Driver/Src/stm32l4xx_hal_dac_ex.c ****   __HAL_UNLOCK(hdac);
  76              		.loc 1 138 3 is_stmt 1 discriminator 2 view .LVU17
  77              		.loc 1 138 3 discriminator 2 view .LVU18
  78 0038 0020     		movs	r0, #0
  79 003a 5871     		strb	r0, [r3, #5]
  80              		.loc 1 138 3 discriminator 2 view .LVU19
 139:Drivers/STM32L4xx_HAL_Driver/Src/stm32l4xx_hal_dac_ex.c **** 
 140:Drivers/STM32L4xx_HAL_Driver/Src/stm32l4xx_hal_dac_ex.c ****   /* Return function status */
 141:Drivers/STM32L4xx_HAL_Driver/Src/stm32l4xx_hal_dac_ex.c ****   return HAL_OK;
  81              		.loc 1 141 3 discriminator 2 view .LVU20
 142:Drivers/STM32L4xx_HAL_Driver/Src/stm32l4xx_hal_dac_ex.c **** }
  82              		.loc 1 142 1 is_stmt 0 discriminator 2 view .LVU21
  83 003c 10BD     		pop	{r4, pc}
  84              	.LVL4:
  85              	.L3:
  86              		.cfi_def_cfa_offset 0
ARM GAS  C:\Users\ldu08\AppData\Local\Temp\ccIB8tUx.s 			page 5


  87              		.cfi_restore 4
  88              		.cfi_restore 14
 126:Drivers/STM32L4xx_HAL_Driver/Src/stm32l4xx_hal_dac_ex.c **** 
  89              		.loc 1 126 3 view .LVU22
  90 003e 0220     		movs	r0, #2
  91              		.loc 1 142 1 view .LVU23
  92 0040 7047     		bx	lr
  93              		.cfi_endproc
  94              	.LFE321:
  96              		.section	.text.HAL_DACEx_NoiseWaveGenerate,"ax",%progbits
  97              		.align	1
  98              		.global	HAL_DACEx_NoiseWaveGenerate
  99              		.syntax unified
 100              		.thumb
 101              		.thumb_func
 103              	HAL_DACEx_NoiseWaveGenerate:
 104              	.LVL5:
 105              	.LFB322:
 143:Drivers/STM32L4xx_HAL_Driver/Src/stm32l4xx_hal_dac_ex.c **** 
 144:Drivers/STM32L4xx_HAL_Driver/Src/stm32l4xx_hal_dac_ex.c **** /**
 145:Drivers/STM32L4xx_HAL_Driver/Src/stm32l4xx_hal_dac_ex.c ****   * @brief  Enable or disable the selected DAC channel wave generation.
 146:Drivers/STM32L4xx_HAL_Driver/Src/stm32l4xx_hal_dac_ex.c ****   * @param  hdac pointer to a DAC_HandleTypeDef structure that contains
 147:Drivers/STM32L4xx_HAL_Driver/Src/stm32l4xx_hal_dac_ex.c ****   *         the configuration information for the specified DAC.
 148:Drivers/STM32L4xx_HAL_Driver/Src/stm32l4xx_hal_dac_ex.c ****   * @param  Channel The selected DAC channel.
 149:Drivers/STM32L4xx_HAL_Driver/Src/stm32l4xx_hal_dac_ex.c ****   *          This parameter can be one of the following values:
 150:Drivers/STM32L4xx_HAL_Driver/Src/stm32l4xx_hal_dac_ex.c ****   *            @arg DAC_CHANNEL_1: DAC Channel1 selected
 151:Drivers/STM32L4xx_HAL_Driver/Src/stm32l4xx_hal_dac_ex.c ****   *            @arg DAC_CHANNEL_2: DAC Channel2 selected
 152:Drivers/STM32L4xx_HAL_Driver/Src/stm32l4xx_hal_dac_ex.c ****   * @param  Amplitude Unmask DAC channel LFSR for noise wave generation.
 153:Drivers/STM32L4xx_HAL_Driver/Src/stm32l4xx_hal_dac_ex.c ****   *          This parameter can be one of the following values:
 154:Drivers/STM32L4xx_HAL_Driver/Src/stm32l4xx_hal_dac_ex.c ****   *            @arg DAC_LFSRUNMASK_BIT0: Unmask DAC channel LFSR bit0 for noise wave generation
 155:Drivers/STM32L4xx_HAL_Driver/Src/stm32l4xx_hal_dac_ex.c ****   *            @arg DAC_LFSRUNMASK_BITS1_0: Unmask DAC channel LFSR bit[1:0] for noise wave generat
 156:Drivers/STM32L4xx_HAL_Driver/Src/stm32l4xx_hal_dac_ex.c ****   *            @arg DAC_LFSRUNMASK_BITS2_0: Unmask DAC channel LFSR bit[2:0] for noise wave generat
 157:Drivers/STM32L4xx_HAL_Driver/Src/stm32l4xx_hal_dac_ex.c ****   *            @arg DAC_LFSRUNMASK_BITS3_0: Unmask DAC channel LFSR bit[3:0] for noise wave generat
 158:Drivers/STM32L4xx_HAL_Driver/Src/stm32l4xx_hal_dac_ex.c ****   *            @arg DAC_LFSRUNMASK_BITS4_0: Unmask DAC channel LFSR bit[4:0] for noise wave generat
 159:Drivers/STM32L4xx_HAL_Driver/Src/stm32l4xx_hal_dac_ex.c ****   *            @arg DAC_LFSRUNMASK_BITS5_0: Unmask DAC channel LFSR bit[5:0] for noise wave generat
 160:Drivers/STM32L4xx_HAL_Driver/Src/stm32l4xx_hal_dac_ex.c ****   *            @arg DAC_LFSRUNMASK_BITS6_0: Unmask DAC channel LFSR bit[6:0] for noise wave generat
 161:Drivers/STM32L4xx_HAL_Driver/Src/stm32l4xx_hal_dac_ex.c ****   *            @arg DAC_LFSRUNMASK_BITS7_0: Unmask DAC channel LFSR bit[7:0] for noise wave generat
 162:Drivers/STM32L4xx_HAL_Driver/Src/stm32l4xx_hal_dac_ex.c ****   *            @arg DAC_LFSRUNMASK_BITS8_0: Unmask DAC channel LFSR bit[8:0] for noise wave generat
 163:Drivers/STM32L4xx_HAL_Driver/Src/stm32l4xx_hal_dac_ex.c ****   *            @arg DAC_LFSRUNMASK_BITS9_0: Unmask DAC channel LFSR bit[9:0] for noise wave generat
 164:Drivers/STM32L4xx_HAL_Driver/Src/stm32l4xx_hal_dac_ex.c ****   *            @arg DAC_LFSRUNMASK_BITS10_0: Unmask DAC channel LFSR bit[10:0] for noise wave gener
 165:Drivers/STM32L4xx_HAL_Driver/Src/stm32l4xx_hal_dac_ex.c ****   *            @arg DAC_LFSRUNMASK_BITS11_0: Unmask DAC channel LFSR bit[11:0] for noise wave gener
 166:Drivers/STM32L4xx_HAL_Driver/Src/stm32l4xx_hal_dac_ex.c ****   * @retval HAL status
 167:Drivers/STM32L4xx_HAL_Driver/Src/stm32l4xx_hal_dac_ex.c ****   */
 168:Drivers/STM32L4xx_HAL_Driver/Src/stm32l4xx_hal_dac_ex.c **** HAL_StatusTypeDef HAL_DACEx_NoiseWaveGenerate(DAC_HandleTypeDef *hdac, uint32_t Channel, uint32_t A
 169:Drivers/STM32L4xx_HAL_Driver/Src/stm32l4xx_hal_dac_ex.c **** {
 106              		.loc 1 169 1 is_stmt 1 view -0
 107              		.cfi_startproc
 108              		@ args = 0, pretend = 0, frame = 0
 109              		@ frame_needed = 0, uses_anonymous_args = 0
 110              		.loc 1 169 1 is_stmt 0 view .LVU25
 111 0000 0346     		mov	r3, r0
 170:Drivers/STM32L4xx_HAL_Driver/Src/stm32l4xx_hal_dac_ex.c ****   /* Check the parameters */
 171:Drivers/STM32L4xx_HAL_Driver/Src/stm32l4xx_hal_dac_ex.c ****   assert_param(IS_DAC_CHANNEL(Channel));
 112              		.loc 1 171 3 is_stmt 1 view .LVU26
 172:Drivers/STM32L4xx_HAL_Driver/Src/stm32l4xx_hal_dac_ex.c ****   assert_param(IS_DAC_LFSR_UNMASK_TRIANGLE_AMPLITUDE(Amplitude));
 113              		.loc 1 172 3 view .LVU27
 173:Drivers/STM32L4xx_HAL_Driver/Src/stm32l4xx_hal_dac_ex.c **** 
ARM GAS  C:\Users\ldu08\AppData\Local\Temp\ccIB8tUx.s 			page 6


 174:Drivers/STM32L4xx_HAL_Driver/Src/stm32l4xx_hal_dac_ex.c ****   /* Process locked */
 175:Drivers/STM32L4xx_HAL_Driver/Src/stm32l4xx_hal_dac_ex.c ****   __HAL_LOCK(hdac);
 114              		.loc 1 175 3 view .LVU28
 115              		.loc 1 175 3 view .LVU29
 116 0002 4079     		ldrb	r0, [r0, #5]	@ zero_extendqisi2
 117              	.LVL6:
 118              		.loc 1 175 3 is_stmt 0 view .LVU30
 119 0004 0128     		cmp	r0, #1
 120 0006 1AD0     		beq	.L10
 169:Drivers/STM32L4xx_HAL_Driver/Src/stm32l4xx_hal_dac_ex.c ****   /* Check the parameters */
 121              		.loc 1 169 1 discriminator 2 view .LVU31
 122 0008 10B5     		push	{r4, lr}
 123              		.cfi_def_cfa_offset 8
 124              		.cfi_offset 4, -8
 125              		.cfi_offset 14, -4
 126              		.loc 1 175 3 is_stmt 1 discriminator 2 view .LVU32
 127 000a 4FF0010E 		mov	lr, #1
 128 000e 83F805E0 		strb	lr, [r3, #5]
 129              		.loc 1 175 3 discriminator 2 view .LVU33
 176:Drivers/STM32L4xx_HAL_Driver/Src/stm32l4xx_hal_dac_ex.c **** 
 177:Drivers/STM32L4xx_HAL_Driver/Src/stm32l4xx_hal_dac_ex.c ****   /* Change DAC state */
 178:Drivers/STM32L4xx_HAL_Driver/Src/stm32l4xx_hal_dac_ex.c ****   hdac->State = HAL_DAC_STATE_BUSY;
 130              		.loc 1 178 3 discriminator 2 view .LVU34
 131              		.loc 1 178 15 is_stmt 0 discriminator 2 view .LVU35
 132 0012 0220     		movs	r0, #2
 133 0014 1871     		strb	r0, [r3, #4]
 179:Drivers/STM32L4xx_HAL_Driver/Src/stm32l4xx_hal_dac_ex.c **** 
 180:Drivers/STM32L4xx_HAL_Driver/Src/stm32l4xx_hal_dac_ex.c ****   /* Enable the noise wave generation for the selected DAC channel */
 181:Drivers/STM32L4xx_HAL_Driver/Src/stm32l4xx_hal_dac_ex.c ****   MODIFY_REG(hdac->Instance->CR, ((DAC_CR_WAVE1) | (DAC_CR_MAMP1)) << (Channel & 0x10UL), (DAC_CR_W
 134              		.loc 1 181 3 is_stmt 1 discriminator 2 view .LVU36
 135 0016 1C68     		ldr	r4, [r3]
 136 0018 2068     		ldr	r0, [r4]
 137 001a 01F01001 		and	r1, r1, #16
 138              	.LVL7:
 139              		.loc 1 181 3 is_stmt 0 discriminator 2 view .LVU37
 140 001e 4FF47C6C 		mov	ip, #4032
 141 0022 0CFA01FC 		lsl	ip, ip, r1
 142 0026 20EA0C00 		bic	r0, r0, ip
 143 002a 42F04002 		orr	r2, r2, #64
 144              	.LVL8:
 145              		.loc 1 181 3 discriminator 2 view .LVU38
 146 002e 8A40     		lsls	r2, r2, r1
 147 0030 0243     		orrs	r2, r2, r0
 148 0032 2260     		str	r2, [r4]
 182:Drivers/STM32L4xx_HAL_Driver/Src/stm32l4xx_hal_dac_ex.c **** 
 183:Drivers/STM32L4xx_HAL_Driver/Src/stm32l4xx_hal_dac_ex.c ****   /* Change DAC state */
 184:Drivers/STM32L4xx_HAL_Driver/Src/stm32l4xx_hal_dac_ex.c ****   hdac->State = HAL_DAC_STATE_READY;
 149              		.loc 1 184 3 is_stmt 1 discriminator 2 view .LVU39
 150              		.loc 1 184 15 is_stmt 0 discriminator 2 view .LVU40
 151 0034 83F804E0 		strb	lr, [r3, #4]
 185:Drivers/STM32L4xx_HAL_Driver/Src/stm32l4xx_hal_dac_ex.c **** 
 186:Drivers/STM32L4xx_HAL_Driver/Src/stm32l4xx_hal_dac_ex.c ****   /* Process unlocked */
 187:Drivers/STM32L4xx_HAL_Driver/Src/stm32l4xx_hal_dac_ex.c ****   __HAL_UNLOCK(hdac);
 152              		.loc 1 187 3 is_stmt 1 discriminator 2 view .LVU41
 153              		.loc 1 187 3 discriminator 2 view .LVU42
 154 0038 0020     		movs	r0, #0
 155 003a 5871     		strb	r0, [r3, #5]
ARM GAS  C:\Users\ldu08\AppData\Local\Temp\ccIB8tUx.s 			page 7


 156              		.loc 1 187 3 discriminator 2 view .LVU43
 188:Drivers/STM32L4xx_HAL_Driver/Src/stm32l4xx_hal_dac_ex.c **** 
 189:Drivers/STM32L4xx_HAL_Driver/Src/stm32l4xx_hal_dac_ex.c ****   /* Return function status */
 190:Drivers/STM32L4xx_HAL_Driver/Src/stm32l4xx_hal_dac_ex.c ****   return HAL_OK;
 157              		.loc 1 190 3 discriminator 2 view .LVU44
 191:Drivers/STM32L4xx_HAL_Driver/Src/stm32l4xx_hal_dac_ex.c **** }
 158              		.loc 1 191 1 is_stmt 0 discriminator 2 view .LVU45
 159 003c 10BD     		pop	{r4, pc}
 160              	.LVL9:
 161              	.L10:
 162              		.cfi_def_cfa_offset 0
 163              		.cfi_restore 4
 164              		.cfi_restore 14
 175:Drivers/STM32L4xx_HAL_Driver/Src/stm32l4xx_hal_dac_ex.c **** 
 165              		.loc 1 175 3 view .LVU46
 166 003e 0220     		movs	r0, #2
 167              		.loc 1 191 1 view .LVU47
 168 0040 7047     		bx	lr
 169              		.cfi_endproc
 170              	.LFE322:
 172              		.section	.text.HAL_DACEx_DualSetValue,"ax",%progbits
 173              		.align	1
 174              		.global	HAL_DACEx_DualSetValue
 175              		.syntax unified
 176              		.thumb
 177              		.thumb_func
 179              	HAL_DACEx_DualSetValue:
 180              	.LVL10:
 181              	.LFB323:
 192:Drivers/STM32L4xx_HAL_Driver/Src/stm32l4xx_hal_dac_ex.c **** 
 193:Drivers/STM32L4xx_HAL_Driver/Src/stm32l4xx_hal_dac_ex.c **** #if defined (STM32L431xx) || defined (STM32L432xx) || defined (STM32L433xx) || defined (STM32L442xx
 194:Drivers/STM32L4xx_HAL_Driver/Src/stm32l4xx_hal_dac_ex.c ****     defined (STM32L471xx) || defined (STM32L475xx) || defined (STM32L476xx) || defined (STM32L485xx
 195:Drivers/STM32L4xx_HAL_Driver/Src/stm32l4xx_hal_dac_ex.c ****     defined (STM32L4P5xx) || defined (STM32L4Q5xx) || \
 196:Drivers/STM32L4xx_HAL_Driver/Src/stm32l4xx_hal_dac_ex.c ****     defined (STM32L4R5xx) || defined (STM32L4R7xx) || defined (STM32L4R9xx) || defined (STM32L4S5xx
 197:Drivers/STM32L4xx_HAL_Driver/Src/stm32l4xx_hal_dac_ex.c **** 
 198:Drivers/STM32L4xx_HAL_Driver/Src/stm32l4xx_hal_dac_ex.c **** /**
 199:Drivers/STM32L4xx_HAL_Driver/Src/stm32l4xx_hal_dac_ex.c ****   * @brief  Set the specified data holding register value for dual DAC channel.
 200:Drivers/STM32L4xx_HAL_Driver/Src/stm32l4xx_hal_dac_ex.c ****   * @param  hdac pointer to a DAC_HandleTypeDef structure that contains
 201:Drivers/STM32L4xx_HAL_Driver/Src/stm32l4xx_hal_dac_ex.c ****   *               the configuration information for the specified DAC.
 202:Drivers/STM32L4xx_HAL_Driver/Src/stm32l4xx_hal_dac_ex.c ****   * @param  Alignment Specifies the data alignment for dual channel DAC.
 203:Drivers/STM32L4xx_HAL_Driver/Src/stm32l4xx_hal_dac_ex.c ****   *          This parameter can be one of the following values:
 204:Drivers/STM32L4xx_HAL_Driver/Src/stm32l4xx_hal_dac_ex.c ****   *            DAC_ALIGN_8B_R: 8bit right data alignment selected
 205:Drivers/STM32L4xx_HAL_Driver/Src/stm32l4xx_hal_dac_ex.c ****   *            DAC_ALIGN_12B_L: 12bit left data alignment selected
 206:Drivers/STM32L4xx_HAL_Driver/Src/stm32l4xx_hal_dac_ex.c ****   *            DAC_ALIGN_12B_R: 12bit right data alignment selected
 207:Drivers/STM32L4xx_HAL_Driver/Src/stm32l4xx_hal_dac_ex.c ****   * @param  Data1 Data for DAC Channel1 to be loaded in the selected data holding register.
 208:Drivers/STM32L4xx_HAL_Driver/Src/stm32l4xx_hal_dac_ex.c ****   * @param  Data2 Data for DAC Channel2 to be loaded in the selected data  holding register.
 209:Drivers/STM32L4xx_HAL_Driver/Src/stm32l4xx_hal_dac_ex.c ****   * @note   In dual mode, a unique register access is required to write in both
 210:Drivers/STM32L4xx_HAL_Driver/Src/stm32l4xx_hal_dac_ex.c ****   *          DAC channels at the same time.
 211:Drivers/STM32L4xx_HAL_Driver/Src/stm32l4xx_hal_dac_ex.c ****   * @retval HAL status
 212:Drivers/STM32L4xx_HAL_Driver/Src/stm32l4xx_hal_dac_ex.c ****   */
 213:Drivers/STM32L4xx_HAL_Driver/Src/stm32l4xx_hal_dac_ex.c **** HAL_StatusTypeDef HAL_DACEx_DualSetValue(DAC_HandleTypeDef *hdac, uint32_t Alignment, uint32_t Data
 214:Drivers/STM32L4xx_HAL_Driver/Src/stm32l4xx_hal_dac_ex.c **** {
 182              		.loc 1 214 1 is_stmt 1 view -0
 183              		.cfi_startproc
 184              		@ args = 0, pretend = 0, frame = 0
 185              		@ frame_needed = 0, uses_anonymous_args = 0
 186              		@ link register save eliminated.
ARM GAS  C:\Users\ldu08\AppData\Local\Temp\ccIB8tUx.s 			page 8


 215:Drivers/STM32L4xx_HAL_Driver/Src/stm32l4xx_hal_dac_ex.c ****   uint32_t data;
 187              		.loc 1 215 3 view .LVU49
 216:Drivers/STM32L4xx_HAL_Driver/Src/stm32l4xx_hal_dac_ex.c ****   uint32_t tmp;
 188              		.loc 1 216 3 view .LVU50
 217:Drivers/STM32L4xx_HAL_Driver/Src/stm32l4xx_hal_dac_ex.c **** 
 218:Drivers/STM32L4xx_HAL_Driver/Src/stm32l4xx_hal_dac_ex.c ****   /* Check the parameters */
 219:Drivers/STM32L4xx_HAL_Driver/Src/stm32l4xx_hal_dac_ex.c ****   assert_param(IS_DAC_ALIGN(Alignment));
 189              		.loc 1 219 3 view .LVU51
 220:Drivers/STM32L4xx_HAL_Driver/Src/stm32l4xx_hal_dac_ex.c ****   assert_param(IS_DAC_DATA(Data1));
 190              		.loc 1 220 3 view .LVU52
 221:Drivers/STM32L4xx_HAL_Driver/Src/stm32l4xx_hal_dac_ex.c ****   assert_param(IS_DAC_DATA(Data2));
 191              		.loc 1 221 3 view .LVU53
 222:Drivers/STM32L4xx_HAL_Driver/Src/stm32l4xx_hal_dac_ex.c **** 
 223:Drivers/STM32L4xx_HAL_Driver/Src/stm32l4xx_hal_dac_ex.c ****   /* Calculate and set dual DAC data holding register value */
 224:Drivers/STM32L4xx_HAL_Driver/Src/stm32l4xx_hal_dac_ex.c ****   if (Alignment == DAC_ALIGN_8B_R)
 192              		.loc 1 224 3 view .LVU54
 193              		.loc 1 224 6 is_stmt 0 view .LVU55
 194 0000 0829     		cmp	r1, #8
 195 0002 06D0     		beq	.L18
 225:Drivers/STM32L4xx_HAL_Driver/Src/stm32l4xx_hal_dac_ex.c ****   {
 226:Drivers/STM32L4xx_HAL_Driver/Src/stm32l4xx_hal_dac_ex.c ****     data = ((uint32_t)Data2 << 8U) | Data1;
 227:Drivers/STM32L4xx_HAL_Driver/Src/stm32l4xx_hal_dac_ex.c ****   }
 228:Drivers/STM32L4xx_HAL_Driver/Src/stm32l4xx_hal_dac_ex.c ****   else
 229:Drivers/STM32L4xx_HAL_Driver/Src/stm32l4xx_hal_dac_ex.c ****   {
 230:Drivers/STM32L4xx_HAL_Driver/Src/stm32l4xx_hal_dac_ex.c ****     data = ((uint32_t)Data2 << 16U) | Data1;
 196              		.loc 1 230 5 is_stmt 1 view .LVU56
 197              		.loc 1 230 10 is_stmt 0 view .LVU57
 198 0004 42EA0342 		orr	r2, r2, r3, lsl #16
 199              	.LVL11:
 200              	.L17:
 231:Drivers/STM32L4xx_HAL_Driver/Src/stm32l4xx_hal_dac_ex.c ****   }
 232:Drivers/STM32L4xx_HAL_Driver/Src/stm32l4xx_hal_dac_ex.c **** 
 233:Drivers/STM32L4xx_HAL_Driver/Src/stm32l4xx_hal_dac_ex.c ****   tmp = (uint32_t)hdac->Instance;
 201              		.loc 1 233 3 is_stmt 1 view .LVU58
 202              		.loc 1 233 23 is_stmt 0 view .LVU59
 203 0008 0368     		ldr	r3, [r0]
 204              	.LVL12:
 234:Drivers/STM32L4xx_HAL_Driver/Src/stm32l4xx_hal_dac_ex.c ****   tmp += DAC_DHR12RD_ALIGNMENT(Alignment);
 205              		.loc 1 234 3 is_stmt 1 view .LVU60
 206              		.loc 1 234 7 is_stmt 0 view .LVU61
 207 000a 1944     		add	r1, r1, r3
 208              	.LVL13:
 235:Drivers/STM32L4xx_HAL_Driver/Src/stm32l4xx_hal_dac_ex.c **** 
 236:Drivers/STM32L4xx_HAL_Driver/Src/stm32l4xx_hal_dac_ex.c ****   /* Set the dual DAC selected data holding register */
 237:Drivers/STM32L4xx_HAL_Driver/Src/stm32l4xx_hal_dac_ex.c ****   *(__IO uint32_t *)tmp = data;
 209              		.loc 1 237 3 is_stmt 1 view .LVU62
 210              		.loc 1 237 25 is_stmt 0 view .LVU63
 211 000c 0A62     		str	r2, [r1, #32]
 238:Drivers/STM32L4xx_HAL_Driver/Src/stm32l4xx_hal_dac_ex.c **** 
 239:Drivers/STM32L4xx_HAL_Driver/Src/stm32l4xx_hal_dac_ex.c ****   /* Return function status */
 240:Drivers/STM32L4xx_HAL_Driver/Src/stm32l4xx_hal_dac_ex.c ****   return HAL_OK;
 212              		.loc 1 240 3 is_stmt 1 view .LVU64
 241:Drivers/STM32L4xx_HAL_Driver/Src/stm32l4xx_hal_dac_ex.c **** }
 213              		.loc 1 241 1 is_stmt 0 view .LVU65
 214 000e 0020     		movs	r0, #0
 215              	.LVL14:
 216              		.loc 1 241 1 view .LVU66
ARM GAS  C:\Users\ldu08\AppData\Local\Temp\ccIB8tUx.s 			page 9


 217 0010 7047     		bx	lr
 218              	.LVL15:
 219              	.L18:
 226:Drivers/STM32L4xx_HAL_Driver/Src/stm32l4xx_hal_dac_ex.c ****   }
 220              		.loc 1 226 5 is_stmt 1 view .LVU67
 226:Drivers/STM32L4xx_HAL_Driver/Src/stm32l4xx_hal_dac_ex.c ****   }
 221              		.loc 1 226 10 is_stmt 0 view .LVU68
 222 0012 42EA0322 		orr	r2, r2, r3, lsl #8
 223              	.LVL16:
 226:Drivers/STM32L4xx_HAL_Driver/Src/stm32l4xx_hal_dac_ex.c ****   }
 224              		.loc 1 226 10 view .LVU69
 225 0016 F7E7     		b	.L17
 226              		.cfi_endproc
 227              	.LFE323:
 229              		.section	.text.HAL_DACEx_ConvCpltCallbackCh2,"ax",%progbits
 230              		.align	1
 231              		.weak	HAL_DACEx_ConvCpltCallbackCh2
 232              		.syntax unified
 233              		.thumb
 234              		.thumb_func
 236              	HAL_DACEx_ConvCpltCallbackCh2:
 237              	.LVL17:
 238              	.LFB324:
 242:Drivers/STM32L4xx_HAL_Driver/Src/stm32l4xx_hal_dac_ex.c **** 
 243:Drivers/STM32L4xx_HAL_Driver/Src/stm32l4xx_hal_dac_ex.c **** /**
 244:Drivers/STM32L4xx_HAL_Driver/Src/stm32l4xx_hal_dac_ex.c ****   * @brief  Conversion complete callback in non-blocking mode for Channel2.
 245:Drivers/STM32L4xx_HAL_Driver/Src/stm32l4xx_hal_dac_ex.c ****   * @param  hdac pointer to a DAC_HandleTypeDef structure that contains
 246:Drivers/STM32L4xx_HAL_Driver/Src/stm32l4xx_hal_dac_ex.c ****   *         the configuration information for the specified DAC.
 247:Drivers/STM32L4xx_HAL_Driver/Src/stm32l4xx_hal_dac_ex.c ****   * @retval None
 248:Drivers/STM32L4xx_HAL_Driver/Src/stm32l4xx_hal_dac_ex.c ****   */
 249:Drivers/STM32L4xx_HAL_Driver/Src/stm32l4xx_hal_dac_ex.c **** __weak void HAL_DACEx_ConvCpltCallbackCh2(DAC_HandleTypeDef *hdac)
 250:Drivers/STM32L4xx_HAL_Driver/Src/stm32l4xx_hal_dac_ex.c **** {
 239              		.loc 1 250 1 is_stmt 1 view -0
 240              		.cfi_startproc
 241              		@ args = 0, pretend = 0, frame = 0
 242              		@ frame_needed = 0, uses_anonymous_args = 0
 243              		@ link register save eliminated.
 251:Drivers/STM32L4xx_HAL_Driver/Src/stm32l4xx_hal_dac_ex.c ****   /* Prevent unused argument(s) compilation warning */
 252:Drivers/STM32L4xx_HAL_Driver/Src/stm32l4xx_hal_dac_ex.c ****   UNUSED(hdac);
 244              		.loc 1 252 3 view .LVU71
 253:Drivers/STM32L4xx_HAL_Driver/Src/stm32l4xx_hal_dac_ex.c **** 
 254:Drivers/STM32L4xx_HAL_Driver/Src/stm32l4xx_hal_dac_ex.c ****   /* NOTE : This function should not be modified, when the callback is needed,
 255:Drivers/STM32L4xx_HAL_Driver/Src/stm32l4xx_hal_dac_ex.c ****             the HAL_DACEx_ConvCpltCallbackCh2 could be implemented in the user file
 256:Drivers/STM32L4xx_HAL_Driver/Src/stm32l4xx_hal_dac_ex.c ****    */
 257:Drivers/STM32L4xx_HAL_Driver/Src/stm32l4xx_hal_dac_ex.c **** }
 245              		.loc 1 257 1 is_stmt 0 view .LVU72
 246 0000 7047     		bx	lr
 247              		.cfi_endproc
 248              	.LFE324:
 250              		.section	.text.HAL_DACEx_ConvHalfCpltCallbackCh2,"ax",%progbits
 251              		.align	1
 252              		.weak	HAL_DACEx_ConvHalfCpltCallbackCh2
 253              		.syntax unified
 254              		.thumb
 255              		.thumb_func
 257              	HAL_DACEx_ConvHalfCpltCallbackCh2:
 258              	.LVL18:
ARM GAS  C:\Users\ldu08\AppData\Local\Temp\ccIB8tUx.s 			page 10


 259              	.LFB325:
 258:Drivers/STM32L4xx_HAL_Driver/Src/stm32l4xx_hal_dac_ex.c **** 
 259:Drivers/STM32L4xx_HAL_Driver/Src/stm32l4xx_hal_dac_ex.c **** /**
 260:Drivers/STM32L4xx_HAL_Driver/Src/stm32l4xx_hal_dac_ex.c ****   * @brief  Conversion half DMA transfer callback in non-blocking mode for Channel2.
 261:Drivers/STM32L4xx_HAL_Driver/Src/stm32l4xx_hal_dac_ex.c ****   * @param  hdac pointer to a DAC_HandleTypeDef structure that contains
 262:Drivers/STM32L4xx_HAL_Driver/Src/stm32l4xx_hal_dac_ex.c ****   *         the configuration information for the specified DAC.
 263:Drivers/STM32L4xx_HAL_Driver/Src/stm32l4xx_hal_dac_ex.c ****   * @retval None
 264:Drivers/STM32L4xx_HAL_Driver/Src/stm32l4xx_hal_dac_ex.c ****   */
 265:Drivers/STM32L4xx_HAL_Driver/Src/stm32l4xx_hal_dac_ex.c **** __weak void HAL_DACEx_ConvHalfCpltCallbackCh2(DAC_HandleTypeDef *hdac)
 266:Drivers/STM32L4xx_HAL_Driver/Src/stm32l4xx_hal_dac_ex.c **** {
 260              		.loc 1 266 1 is_stmt 1 view -0
 261              		.cfi_startproc
 262              		@ args = 0, pretend = 0, frame = 0
 263              		@ frame_needed = 0, uses_anonymous_args = 0
 264              		@ link register save eliminated.
 267:Drivers/STM32L4xx_HAL_Driver/Src/stm32l4xx_hal_dac_ex.c ****   /* Prevent unused argument(s) compilation warning */
 268:Drivers/STM32L4xx_HAL_Driver/Src/stm32l4xx_hal_dac_ex.c ****   UNUSED(hdac);
 265              		.loc 1 268 3 view .LVU74
 269:Drivers/STM32L4xx_HAL_Driver/Src/stm32l4xx_hal_dac_ex.c **** 
 270:Drivers/STM32L4xx_HAL_Driver/Src/stm32l4xx_hal_dac_ex.c ****   /* NOTE : This function should not be modified, when the callback is needed,
 271:Drivers/STM32L4xx_HAL_Driver/Src/stm32l4xx_hal_dac_ex.c ****             the HAL_DACEx_ConvHalfCpltCallbackCh2 could be implemented in the user file
 272:Drivers/STM32L4xx_HAL_Driver/Src/stm32l4xx_hal_dac_ex.c ****    */
 273:Drivers/STM32L4xx_HAL_Driver/Src/stm32l4xx_hal_dac_ex.c **** }
 266              		.loc 1 273 1 is_stmt 0 view .LVU75
 267 0000 7047     		bx	lr
 268              		.cfi_endproc
 269              	.LFE325:
 271              		.section	.text.HAL_DACEx_ErrorCallbackCh2,"ax",%progbits
 272              		.align	1
 273              		.weak	HAL_DACEx_ErrorCallbackCh2
 274              		.syntax unified
 275              		.thumb
 276              		.thumb_func
 278              	HAL_DACEx_ErrorCallbackCh2:
 279              	.LVL19:
 280              	.LFB326:
 274:Drivers/STM32L4xx_HAL_Driver/Src/stm32l4xx_hal_dac_ex.c **** 
 275:Drivers/STM32L4xx_HAL_Driver/Src/stm32l4xx_hal_dac_ex.c **** /**
 276:Drivers/STM32L4xx_HAL_Driver/Src/stm32l4xx_hal_dac_ex.c ****   * @brief  Error DAC callback for Channel2.
 277:Drivers/STM32L4xx_HAL_Driver/Src/stm32l4xx_hal_dac_ex.c ****   * @param  hdac pointer to a DAC_HandleTypeDef structure that contains
 278:Drivers/STM32L4xx_HAL_Driver/Src/stm32l4xx_hal_dac_ex.c ****   *         the configuration information for the specified DAC.
 279:Drivers/STM32L4xx_HAL_Driver/Src/stm32l4xx_hal_dac_ex.c ****   * @retval None
 280:Drivers/STM32L4xx_HAL_Driver/Src/stm32l4xx_hal_dac_ex.c ****   */
 281:Drivers/STM32L4xx_HAL_Driver/Src/stm32l4xx_hal_dac_ex.c **** __weak void HAL_DACEx_ErrorCallbackCh2(DAC_HandleTypeDef *hdac)
 282:Drivers/STM32L4xx_HAL_Driver/Src/stm32l4xx_hal_dac_ex.c **** {
 281              		.loc 1 282 1 is_stmt 1 view -0
 282              		.cfi_startproc
 283              		@ args = 0, pretend = 0, frame = 0
 284              		@ frame_needed = 0, uses_anonymous_args = 0
 285              		@ link register save eliminated.
 283:Drivers/STM32L4xx_HAL_Driver/Src/stm32l4xx_hal_dac_ex.c ****   /* Prevent unused argument(s) compilation warning */
 284:Drivers/STM32L4xx_HAL_Driver/Src/stm32l4xx_hal_dac_ex.c ****   UNUSED(hdac);
 286              		.loc 1 284 3 view .LVU77
 285:Drivers/STM32L4xx_HAL_Driver/Src/stm32l4xx_hal_dac_ex.c **** 
 286:Drivers/STM32L4xx_HAL_Driver/Src/stm32l4xx_hal_dac_ex.c ****   /* NOTE : This function should not be modified, when the callback is needed,
 287:Drivers/STM32L4xx_HAL_Driver/Src/stm32l4xx_hal_dac_ex.c ****             the HAL_DACEx_ErrorCallbackCh2 could be implemented in the user file
 288:Drivers/STM32L4xx_HAL_Driver/Src/stm32l4xx_hal_dac_ex.c ****    */
ARM GAS  C:\Users\ldu08\AppData\Local\Temp\ccIB8tUx.s 			page 11


 289:Drivers/STM32L4xx_HAL_Driver/Src/stm32l4xx_hal_dac_ex.c **** }
 287              		.loc 1 289 1 is_stmt 0 view .LVU78
 288 0000 7047     		bx	lr
 289              		.cfi_endproc
 290              	.LFE326:
 292              		.section	.text.HAL_DACEx_DMAUnderrunCallbackCh2,"ax",%progbits
 293              		.align	1
 294              		.weak	HAL_DACEx_DMAUnderrunCallbackCh2
 295              		.syntax unified
 296              		.thumb
 297              		.thumb_func
 299              	HAL_DACEx_DMAUnderrunCallbackCh2:
 300              	.LVL20:
 301              	.LFB327:
 290:Drivers/STM32L4xx_HAL_Driver/Src/stm32l4xx_hal_dac_ex.c **** 
 291:Drivers/STM32L4xx_HAL_Driver/Src/stm32l4xx_hal_dac_ex.c **** /**
 292:Drivers/STM32L4xx_HAL_Driver/Src/stm32l4xx_hal_dac_ex.c ****   * @brief  DMA underrun DAC callback for Channel2.
 293:Drivers/STM32L4xx_HAL_Driver/Src/stm32l4xx_hal_dac_ex.c ****   * @param  hdac pointer to a DAC_HandleTypeDef structure that contains
 294:Drivers/STM32L4xx_HAL_Driver/Src/stm32l4xx_hal_dac_ex.c ****   *         the configuration information for the specified DAC.
 295:Drivers/STM32L4xx_HAL_Driver/Src/stm32l4xx_hal_dac_ex.c ****   * @retval None
 296:Drivers/STM32L4xx_HAL_Driver/Src/stm32l4xx_hal_dac_ex.c ****   */
 297:Drivers/STM32L4xx_HAL_Driver/Src/stm32l4xx_hal_dac_ex.c **** __weak void HAL_DACEx_DMAUnderrunCallbackCh2(DAC_HandleTypeDef *hdac)
 298:Drivers/STM32L4xx_HAL_Driver/Src/stm32l4xx_hal_dac_ex.c **** {
 302              		.loc 1 298 1 is_stmt 1 view -0
 303              		.cfi_startproc
 304              		@ args = 0, pretend = 0, frame = 0
 305              		@ frame_needed = 0, uses_anonymous_args = 0
 306              		@ link register save eliminated.
 299:Drivers/STM32L4xx_HAL_Driver/Src/stm32l4xx_hal_dac_ex.c ****   /* Prevent unused argument(s) compilation warning */
 300:Drivers/STM32L4xx_HAL_Driver/Src/stm32l4xx_hal_dac_ex.c ****   UNUSED(hdac);
 307              		.loc 1 300 3 view .LVU80
 301:Drivers/STM32L4xx_HAL_Driver/Src/stm32l4xx_hal_dac_ex.c **** 
 302:Drivers/STM32L4xx_HAL_Driver/Src/stm32l4xx_hal_dac_ex.c ****   /* NOTE : This function should not be modified, when the callback is needed,
 303:Drivers/STM32L4xx_HAL_Driver/Src/stm32l4xx_hal_dac_ex.c ****             the HAL_DACEx_DMAUnderrunCallbackCh2 could be implemented in the user file
 304:Drivers/STM32L4xx_HAL_Driver/Src/stm32l4xx_hal_dac_ex.c ****    */
 305:Drivers/STM32L4xx_HAL_Driver/Src/stm32l4xx_hal_dac_ex.c **** }
 308              		.loc 1 305 1 is_stmt 0 view .LVU81
 309 0000 7047     		bx	lr
 310              		.cfi_endproc
 311              	.LFE327:
 313              		.section	.text.HAL_DACEx_SelfCalibrate,"ax",%progbits
 314              		.align	1
 315              		.global	HAL_DACEx_SelfCalibrate
 316              		.syntax unified
 317              		.thumb
 318              		.thumb_func
 320              	HAL_DACEx_SelfCalibrate:
 321              	.LVL21:
 322              	.LFB328:
 306:Drivers/STM32L4xx_HAL_Driver/Src/stm32l4xx_hal_dac_ex.c **** #endif  /* STM32L431xx STM32L432xx STM32L433xx STM32L442xx STM32L443xx                         */
 307:Drivers/STM32L4xx_HAL_Driver/Src/stm32l4xx_hal_dac_ex.c ****         /* STM32L471xx STM32L475xx STM32L476xx STM32L485xx STM32L486xx STM32L496xx STM32L4A6xx */
 308:Drivers/STM32L4xx_HAL_Driver/Src/stm32l4xx_hal_dac_ex.c ****         /* STM32L4P5xx STM32L4Q5xx                                                             */
 309:Drivers/STM32L4xx_HAL_Driver/Src/stm32l4xx_hal_dac_ex.c ****         /* STM32L4R5xx STM32L4R7xx STM32L4R9xx STM32L4S5xx STM32L4S7xx STM32L4S9xx             */
 310:Drivers/STM32L4xx_HAL_Driver/Src/stm32l4xx_hal_dac_ex.c **** 
 311:Drivers/STM32L4xx_HAL_Driver/Src/stm32l4xx_hal_dac_ex.c **** /**
 312:Drivers/STM32L4xx_HAL_Driver/Src/stm32l4xx_hal_dac_ex.c ****   * @brief  Run the self calibration of one DAC channel.
 313:Drivers/STM32L4xx_HAL_Driver/Src/stm32l4xx_hal_dac_ex.c ****   * @param  hdac pointer to a DAC_HandleTypeDef structure that contains
ARM GAS  C:\Users\ldu08\AppData\Local\Temp\ccIB8tUx.s 			page 12


 314:Drivers/STM32L4xx_HAL_Driver/Src/stm32l4xx_hal_dac_ex.c ****   *         the configuration information for the specified DAC.
 315:Drivers/STM32L4xx_HAL_Driver/Src/stm32l4xx_hal_dac_ex.c ****   * @param  sConfig DAC channel configuration structure.
 316:Drivers/STM32L4xx_HAL_Driver/Src/stm32l4xx_hal_dac_ex.c ****   * @param  Channel The selected DAC channel.
 317:Drivers/STM32L4xx_HAL_Driver/Src/stm32l4xx_hal_dac_ex.c ****   *          This parameter can be one of the following values:
 318:Drivers/STM32L4xx_HAL_Driver/Src/stm32l4xx_hal_dac_ex.c ****   *            @arg DAC_CHANNEL_1: DAC Channel1 selected
 319:Drivers/STM32L4xx_HAL_Driver/Src/stm32l4xx_hal_dac_ex.c ****   *            @arg DAC_CHANNEL_2: DAC Channel2 selected
 320:Drivers/STM32L4xx_HAL_Driver/Src/stm32l4xx_hal_dac_ex.c ****   * @retval Updates DAC_TrimmingValue. , DAC_UserTrimming set to DAC_UserTrimming
 321:Drivers/STM32L4xx_HAL_Driver/Src/stm32l4xx_hal_dac_ex.c ****   * @retval HAL status
 322:Drivers/STM32L4xx_HAL_Driver/Src/stm32l4xx_hal_dac_ex.c ****   * @note   Calibration runs about 7 ms.
 323:Drivers/STM32L4xx_HAL_Driver/Src/stm32l4xx_hal_dac_ex.c ****   */
 324:Drivers/STM32L4xx_HAL_Driver/Src/stm32l4xx_hal_dac_ex.c **** 
 325:Drivers/STM32L4xx_HAL_Driver/Src/stm32l4xx_hal_dac_ex.c **** HAL_StatusTypeDef HAL_DACEx_SelfCalibrate(DAC_HandleTypeDef *hdac, DAC_ChannelConfTypeDef *sConfig,
 326:Drivers/STM32L4xx_HAL_Driver/Src/stm32l4xx_hal_dac_ex.c **** {
 323              		.loc 1 326 1 is_stmt 1 view -0
 324              		.cfi_startproc
 325              		@ args = 0, pretend = 0, frame = 8
 326              		@ frame_needed = 0, uses_anonymous_args = 0
 327:Drivers/STM32L4xx_HAL_Driver/Src/stm32l4xx_hal_dac_ex.c ****   HAL_StatusTypeDef status = HAL_OK;
 327              		.loc 1 327 3 view .LVU83
 328:Drivers/STM32L4xx_HAL_Driver/Src/stm32l4xx_hal_dac_ex.c **** 
 329:Drivers/STM32L4xx_HAL_Driver/Src/stm32l4xx_hal_dac_ex.c ****   __IO uint32_t tmp;
 328              		.loc 1 329 3 view .LVU84
 330:Drivers/STM32L4xx_HAL_Driver/Src/stm32l4xx_hal_dac_ex.c ****   uint32_t trimmingvalue;
 329              		.loc 1 330 3 view .LVU85
 331:Drivers/STM32L4xx_HAL_Driver/Src/stm32l4xx_hal_dac_ex.c ****   uint32_t delta;
 330              		.loc 1 331 3 view .LVU86
 332:Drivers/STM32L4xx_HAL_Driver/Src/stm32l4xx_hal_dac_ex.c **** 
 333:Drivers/STM32L4xx_HAL_Driver/Src/stm32l4xx_hal_dac_ex.c ****   /* store/restore channel configuration structure purpose */
 334:Drivers/STM32L4xx_HAL_Driver/Src/stm32l4xx_hal_dac_ex.c ****   uint32_t oldmodeconfiguration;
 331              		.loc 1 334 3 view .LVU87
 335:Drivers/STM32L4xx_HAL_Driver/Src/stm32l4xx_hal_dac_ex.c **** 
 336:Drivers/STM32L4xx_HAL_Driver/Src/stm32l4xx_hal_dac_ex.c ****   /* Check the parameters */
 337:Drivers/STM32L4xx_HAL_Driver/Src/stm32l4xx_hal_dac_ex.c ****   assert_param(IS_DAC_CHANNEL(Channel));
 332              		.loc 1 337 3 view .LVU88
 338:Drivers/STM32L4xx_HAL_Driver/Src/stm32l4xx_hal_dac_ex.c **** 
 339:Drivers/STM32L4xx_HAL_Driver/Src/stm32l4xx_hal_dac_ex.c ****  /* Check the DAC handle allocation */
 340:Drivers/STM32L4xx_HAL_Driver/Src/stm32l4xx_hal_dac_ex.c ****  /* Check if DAC running */
 341:Drivers/STM32L4xx_HAL_Driver/Src/stm32l4xx_hal_dac_ex.c ****   if (hdac == NULL)
 333              		.loc 1 341 3 view .LVU89
 334              		.loc 1 341 6 is_stmt 0 view .LVU90
 335 0000 0028     		cmp	r0, #0
 336 0002 00F08380 		beq	.L32
 326:Drivers/STM32L4xx_HAL_Driver/Src/stm32l4xx_hal_dac_ex.c ****   HAL_StatusTypeDef status = HAL_OK;
 337              		.loc 1 326 1 view .LVU91
 338 0006 2DE9F04F 		push	{r4, r5, r6, r7, r8, r9, r10, fp, lr}
 339              		.cfi_def_cfa_offset 36
 340              		.cfi_offset 4, -36
 341              		.cfi_offset 5, -32
 342              		.cfi_offset 6, -28
 343              		.cfi_offset 7, -24
 344              		.cfi_offset 8, -20
 345              		.cfi_offset 9, -16
 346              		.cfi_offset 10, -12
 347              		.cfi_offset 11, -8
 348              		.cfi_offset 14, -4
 349 000a 83B0     		sub	sp, sp, #12
 350              		.cfi_def_cfa_offset 48
ARM GAS  C:\Users\ldu08\AppData\Local\Temp\ccIB8tUx.s 			page 13


 351 000c 8946     		mov	r9, r1
 352 000e 0446     		mov	r4, r0
 342:Drivers/STM32L4xx_HAL_Driver/Src/stm32l4xx_hal_dac_ex.c ****   {
 343:Drivers/STM32L4xx_HAL_Driver/Src/stm32l4xx_hal_dac_ex.c ****     status = HAL_ERROR;
 344:Drivers/STM32L4xx_HAL_Driver/Src/stm32l4xx_hal_dac_ex.c ****   }
 345:Drivers/STM32L4xx_HAL_Driver/Src/stm32l4xx_hal_dac_ex.c ****   else if (hdac->State == HAL_DAC_STATE_BUSY)
 353              		.loc 1 345 8 is_stmt 1 view .LVU92
 354              		.loc 1 345 16 is_stmt 0 view .LVU93
 355 0010 0379     		ldrb	r3, [r0, #4]	@ zero_extendqisi2
 356 0012 DBB2     		uxtb	r3, r3
 357              		.loc 1 345 11 view .LVU94
 358 0014 022B     		cmp	r3, #2
 359 0016 7BD0     		beq	.L33
 346:Drivers/STM32L4xx_HAL_Driver/Src/stm32l4xx_hal_dac_ex.c ****   {
 347:Drivers/STM32L4xx_HAL_Driver/Src/stm32l4xx_hal_dac_ex.c ****     status = HAL_ERROR;
 348:Drivers/STM32L4xx_HAL_Driver/Src/stm32l4xx_hal_dac_ex.c ****   }
 349:Drivers/STM32L4xx_HAL_Driver/Src/stm32l4xx_hal_dac_ex.c ****   else
 350:Drivers/STM32L4xx_HAL_Driver/Src/stm32l4xx_hal_dac_ex.c ****   {
 351:Drivers/STM32L4xx_HAL_Driver/Src/stm32l4xx_hal_dac_ex.c ****     /* Process locked */
 352:Drivers/STM32L4xx_HAL_Driver/Src/stm32l4xx_hal_dac_ex.c ****     __HAL_LOCK(hdac);
 360              		.loc 1 352 5 is_stmt 1 view .LVU95
 361              		.loc 1 352 5 view .LVU96
 362 0018 4379     		ldrb	r3, [r0, #5]	@ zero_extendqisi2
 363 001a 012B     		cmp	r3, #1
 364 001c 7AD0     		beq	.L34
 365              		.loc 1 352 5 discriminator 2 view .LVU97
 366 001e 0121     		movs	r1, #1
 367              	.LVL22:
 368              		.loc 1 352 5 is_stmt 0 discriminator 2 view .LVU98
 369 0020 4171     		strb	r1, [r0, #5]
 370              		.loc 1 352 5 is_stmt 1 discriminator 2 view .LVU99
 353:Drivers/STM32L4xx_HAL_Driver/Src/stm32l4xx_hal_dac_ex.c **** 
 354:Drivers/STM32L4xx_HAL_Driver/Src/stm32l4xx_hal_dac_ex.c ****     /* Store configuration */
 355:Drivers/STM32L4xx_HAL_Driver/Src/stm32l4xx_hal_dac_ex.c ****     oldmodeconfiguration = (hdac->Instance->MCR & (DAC_MCR_MODE1 << (Channel & 0x10UL)));
 371              		.loc 1 355 5 discriminator 2 view .LVU100
 372              		.loc 1 355 33 is_stmt 0 discriminator 2 view .LVU101
 373 0022 0068     		ldr	r0, [r0]
 374              	.LVL23:
 375              		.loc 1 355 43 discriminator 2 view .LVU102
 376 0024 C56B     		ldr	r5, [r0, #60]
 377              		.loc 1 355 78 discriminator 2 view .LVU103
 378 0026 02F01007 		and	r7, r2, #16
 379              		.loc 1 355 66 discriminator 2 view .LVU104
 380 002a 0723     		movs	r3, #7
 381 002c BB40     		lsls	r3, r3, r7
 382              		.loc 1 355 26 discriminator 2 view .LVU105
 383 002e 05EA030B 		and	fp, r5, r3
 384              	.LVL24:
 356:Drivers/STM32L4xx_HAL_Driver/Src/stm32l4xx_hal_dac_ex.c **** 
 357:Drivers/STM32L4xx_HAL_Driver/Src/stm32l4xx_hal_dac_ex.c ****     /* Disable the selected DAC channel */
 358:Drivers/STM32L4xx_HAL_Driver/Src/stm32l4xx_hal_dac_ex.c ****     CLEAR_BIT((hdac->Instance->CR), (DAC_CR_EN1 << (Channel & 0x10UL)));
 385              		.loc 1 358 5 is_stmt 1 discriminator 2 view .LVU106
 386 0032 0568     		ldr	r5, [r0]
 387 0034 B940     		lsls	r1, r1, r7
 388 0036 25EA0101 		bic	r1, r5, r1
 389 003a 0160     		str	r1, [r0]
 359:Drivers/STM32L4xx_HAL_Driver/Src/stm32l4xx_hal_dac_ex.c **** 
ARM GAS  C:\Users\ldu08\AppData\Local\Temp\ccIB8tUx.s 			page 14


 360:Drivers/STM32L4xx_HAL_Driver/Src/stm32l4xx_hal_dac_ex.c ****     /* Set mode in MCR  for calibration */
 361:Drivers/STM32L4xx_HAL_Driver/Src/stm32l4xx_hal_dac_ex.c ****     MODIFY_REG(hdac->Instance->MCR, (DAC_MCR_MODE1 << (Channel & 0x10UL)), 0U);
 390              		.loc 1 361 5 discriminator 2 view .LVU107
 391 003c 2068     		ldr	r0, [r4]
 392 003e C16B     		ldr	r1, [r0, #60]
 393 0040 6FEA030A 		mvn	r10, r3
 394 0044 21EA0303 		bic	r3, r1, r3
 395 0048 C363     		str	r3, [r0, #60]
 362:Drivers/STM32L4xx_HAL_Driver/Src/stm32l4xx_hal_dac_ex.c **** 
 363:Drivers/STM32L4xx_HAL_Driver/Src/stm32l4xx_hal_dac_ex.c ****     /* Set DAC Channel1 DHR register to the middle value */
 364:Drivers/STM32L4xx_HAL_Driver/Src/stm32l4xx_hal_dac_ex.c ****     tmp = (uint32_t)hdac->Instance;
 396              		.loc 1 364 5 discriminator 2 view .LVU108
 397              		.loc 1 364 25 is_stmt 0 discriminator 2 view .LVU109
 398 004a 2368     		ldr	r3, [r4]
 399              		.loc 1 364 9 discriminator 2 view .LVU110
 400 004c 0193     		str	r3, [sp, #4]
 365:Drivers/STM32L4xx_HAL_Driver/Src/stm32l4xx_hal_dac_ex.c **** 
 366:Drivers/STM32L4xx_HAL_Driver/Src/stm32l4xx_hal_dac_ex.c **** #if defined (STM32L431xx) || defined (STM32L432xx) || defined (STM32L433xx) || defined (STM32L442xx
 367:Drivers/STM32L4xx_HAL_Driver/Src/stm32l4xx_hal_dac_ex.c ****     defined (STM32L471xx) || defined (STM32L475xx) || defined (STM32L476xx) || defined (STM32L485xx
 368:Drivers/STM32L4xx_HAL_Driver/Src/stm32l4xx_hal_dac_ex.c ****     defined (STM32L4P5xx) || defined (STM32L4Q5xx) || \
 369:Drivers/STM32L4xx_HAL_Driver/Src/stm32l4xx_hal_dac_ex.c ****     defined (STM32L4R5xx) || defined (STM32L4R7xx) || defined (STM32L4R9xx) || defined (STM32L4S5xx
 370:Drivers/STM32L4xx_HAL_Driver/Src/stm32l4xx_hal_dac_ex.c ****     if(Channel == DAC_CHANNEL_1)
 401              		.loc 1 370 5 is_stmt 1 discriminator 2 view .LVU111
 402              		.loc 1 370 7 is_stmt 0 discriminator 2 view .LVU112
 403 004e 92B9     		cbnz	r2, .L25
 371:Drivers/STM32L4xx_HAL_Driver/Src/stm32l4xx_hal_dac_ex.c ****     {
 372:Drivers/STM32L4xx_HAL_Driver/Src/stm32l4xx_hal_dac_ex.c ****       tmp += DAC_DHR12R1_ALIGNMENT(DAC_ALIGN_12B_R);
 404              		.loc 1 372 7 is_stmt 1 view .LVU113
 405              		.loc 1 372 11 is_stmt 0 view .LVU114
 406 0050 019B     		ldr	r3, [sp, #4]
 407 0052 0833     		adds	r3, r3, #8
 408 0054 0193     		str	r3, [sp, #4]
 409              	.L26:
 373:Drivers/STM32L4xx_HAL_Driver/Src/stm32l4xx_hal_dac_ex.c ****     }
 374:Drivers/STM32L4xx_HAL_Driver/Src/stm32l4xx_hal_dac_ex.c ****     else
 375:Drivers/STM32L4xx_HAL_Driver/Src/stm32l4xx_hal_dac_ex.c ****     {
 376:Drivers/STM32L4xx_HAL_Driver/Src/stm32l4xx_hal_dac_ex.c ****       tmp += DAC_DHR12R2_ALIGNMENT(DAC_ALIGN_12B_R);
 377:Drivers/STM32L4xx_HAL_Driver/Src/stm32l4xx_hal_dac_ex.c ****     }
 378:Drivers/STM32L4xx_HAL_Driver/Src/stm32l4xx_hal_dac_ex.c **** #endif  /* STM32L431xx STM32L432xx STM32L433xx STM32L442xx STM32L443xx                         */
 379:Drivers/STM32L4xx_HAL_Driver/Src/stm32l4xx_hal_dac_ex.c ****         /* STM32L471xx STM32L475xx STM32L476xx STM32L485xx STM32L486xx STM32L496xx STM32L4A6xx */
 380:Drivers/STM32L4xx_HAL_Driver/Src/stm32l4xx_hal_dac_ex.c ****         /* STM32L4P5xx STM32L4Q5xx                                                             */
 381:Drivers/STM32L4xx_HAL_Driver/Src/stm32l4xx_hal_dac_ex.c ****         /* STM32L4R5xx STM32L4R7xx STM32L4R9xx STM32L4S5xx STM32L4S7xx STM32L4S9xx             */
 382:Drivers/STM32L4xx_HAL_Driver/Src/stm32l4xx_hal_dac_ex.c **** #if defined (STM32L451xx) || defined (STM32L452xx) || defined (STM32L462xx)
 383:Drivers/STM32L4xx_HAL_Driver/Src/stm32l4xx_hal_dac_ex.c ****     tmp += DAC_DHR12R1_ALIGNMENT(DAC_ALIGN_12B_R);
 384:Drivers/STM32L4xx_HAL_Driver/Src/stm32l4xx_hal_dac_ex.c **** #endif /* STM32L451xx STM32L452xx STM32L462xx */
 385:Drivers/STM32L4xx_HAL_Driver/Src/stm32l4xx_hal_dac_ex.c ****     *(__IO uint32_t *) tmp = 0x0800U;
 410              		.loc 1 385 5 is_stmt 1 view .LVU115
 411              		.loc 1 385 6 is_stmt 0 view .LVU116
 412 0056 019B     		ldr	r3, [sp, #4]
 413              		.loc 1 385 28 view .LVU117
 414 0058 4FF40062 		mov	r2, #2048
 415              	.LVL25:
 416              		.loc 1 385 28 view .LVU118
 417 005c 1A60     		str	r2, [r3]
 386:Drivers/STM32L4xx_HAL_Driver/Src/stm32l4xx_hal_dac_ex.c **** 
 387:Drivers/STM32L4xx_HAL_Driver/Src/stm32l4xx_hal_dac_ex.c ****     /* Enable the selected DAC channel calibration */
 388:Drivers/STM32L4xx_HAL_Driver/Src/stm32l4xx_hal_dac_ex.c ****     /* i.e. set DAC_CR_CENx bit */
ARM GAS  C:\Users\ldu08\AppData\Local\Temp\ccIB8tUx.s 			page 15


 389:Drivers/STM32L4xx_HAL_Driver/Src/stm32l4xx_hal_dac_ex.c ****     SET_BIT((hdac->Instance->CR), (DAC_CR_CEN1 << (Channel & 0x10UL)));
 418              		.loc 1 389 5 is_stmt 1 view .LVU119
 419 005e 2268     		ldr	r2, [r4]
 420 0060 1368     		ldr	r3, [r2]
 421 0062 4FF48048 		mov	r8, #16384
 422 0066 08FA07F8 		lsl	r8, r8, r7
 423 006a 43EA0803 		orr	r3, r3, r8
 424 006e 1360     		str	r3, [r2]
 390:Drivers/STM32L4xx_HAL_Driver/Src/stm32l4xx_hal_dac_ex.c **** 
 391:Drivers/STM32L4xx_HAL_Driver/Src/stm32l4xx_hal_dac_ex.c ****     /* Init trimming counter */
 392:Drivers/STM32L4xx_HAL_Driver/Src/stm32l4xx_hal_dac_ex.c ****     /* Medium value */
 393:Drivers/STM32L4xx_HAL_Driver/Src/stm32l4xx_hal_dac_ex.c ****     trimmingvalue = 16U;
 425              		.loc 1 393 5 view .LVU120
 426              	.LVL26:
 394:Drivers/STM32L4xx_HAL_Driver/Src/stm32l4xx_hal_dac_ex.c ****     delta = 8U;
 427              		.loc 1 394 5 view .LVU121
 395:Drivers/STM32L4xx_HAL_Driver/Src/stm32l4xx_hal_dac_ex.c ****     while (delta != 0U)
 428              		.loc 1 395 5 view .LVU122
 394:Drivers/STM32L4xx_HAL_Driver/Src/stm32l4xx_hal_dac_ex.c ****     delta = 8U;
 429              		.loc 1 394 11 is_stmt 0 view .LVU123
 430 0070 0825     		movs	r5, #8
 393:Drivers/STM32L4xx_HAL_Driver/Src/stm32l4xx_hal_dac_ex.c ****     delta = 8U;
 431              		.loc 1 393 19 view .LVU124
 432 0072 1026     		movs	r6, #16
 433              		.loc 1 395 11 view .LVU125
 434 0074 05E0     		b	.L27
 435              	.LVL27:
 436              	.L25:
 376:Drivers/STM32L4xx_HAL_Driver/Src/stm32l4xx_hal_dac_ex.c ****     }
 437              		.loc 1 376 7 is_stmt 1 view .LVU126
 376:Drivers/STM32L4xx_HAL_Driver/Src/stm32l4xx_hal_dac_ex.c ****     }
 438              		.loc 1 376 11 is_stmt 0 view .LVU127
 439 0076 019B     		ldr	r3, [sp, #4]
 440 0078 1433     		adds	r3, r3, #20
 441 007a 0193     		str	r3, [sp, #4]
 442 007c EBE7     		b	.L26
 443              	.LVL28:
 444              	.L28:
 396:Drivers/STM32L4xx_HAL_Driver/Src/stm32l4xx_hal_dac_ex.c ****     {
 397:Drivers/STM32L4xx_HAL_Driver/Src/stm32l4xx_hal_dac_ex.c ****       /* Set candidate trimming */
 398:Drivers/STM32L4xx_HAL_Driver/Src/stm32l4xx_hal_dac_ex.c ****       MODIFY_REG(hdac->Instance->CCR, (DAC_CCR_OTRIM1 << (Channel & 0x10UL)), (trimmingvalue << (Ch
 399:Drivers/STM32L4xx_HAL_Driver/Src/stm32l4xx_hal_dac_ex.c **** 
 400:Drivers/STM32L4xx_HAL_Driver/Src/stm32l4xx_hal_dac_ex.c ****       /* tOFFTRIMmax delay x ms as per datasheet (electrical characteristics */
 401:Drivers/STM32L4xx_HAL_Driver/Src/stm32l4xx_hal_dac_ex.c ****       /* i.e. minimum time needed between two calibration steps */
 402:Drivers/STM32L4xx_HAL_Driver/Src/stm32l4xx_hal_dac_ex.c ****       HAL_Delay(1);
 403:Drivers/STM32L4xx_HAL_Driver/Src/stm32l4xx_hal_dac_ex.c **** 
 404:Drivers/STM32L4xx_HAL_Driver/Src/stm32l4xx_hal_dac_ex.c ****       if ((hdac->Instance->SR & (DAC_SR_CAL_FLAG1 << (Channel & 0x10UL))) == (DAC_SR_CAL_FLAG1 << (
 405:Drivers/STM32L4xx_HAL_Driver/Src/stm32l4xx_hal_dac_ex.c ****       {
 406:Drivers/STM32L4xx_HAL_Driver/Src/stm32l4xx_hal_dac_ex.c ****         /* DAC_SR_CAL_FLAGx is HIGH try higher trimming */
 407:Drivers/STM32L4xx_HAL_Driver/Src/stm32l4xx_hal_dac_ex.c ****         trimmingvalue -= delta;
 408:Drivers/STM32L4xx_HAL_Driver/Src/stm32l4xx_hal_dac_ex.c ****       }
 409:Drivers/STM32L4xx_HAL_Driver/Src/stm32l4xx_hal_dac_ex.c ****       else
 410:Drivers/STM32L4xx_HAL_Driver/Src/stm32l4xx_hal_dac_ex.c ****       {
 411:Drivers/STM32L4xx_HAL_Driver/Src/stm32l4xx_hal_dac_ex.c ****         /* DAC_SR_CAL_FLAGx is LOW try lower trimming */
 412:Drivers/STM32L4xx_HAL_Driver/Src/stm32l4xx_hal_dac_ex.c ****         trimmingvalue += delta;
 445              		.loc 1 412 9 is_stmt 1 view .LVU128
 446              		.loc 1 412 23 is_stmt 0 view .LVU129
ARM GAS  C:\Users\ldu08\AppData\Local\Temp\ccIB8tUx.s 			page 16


 447 007e 2E44     		add	r6, r6, r5
 448              	.LVL29:
 449              	.L29:
 413:Drivers/STM32L4xx_HAL_Driver/Src/stm32l4xx_hal_dac_ex.c ****       }
 414:Drivers/STM32L4xx_HAL_Driver/Src/stm32l4xx_hal_dac_ex.c ****       delta >>= 1U;
 450              		.loc 1 414 7 is_stmt 1 view .LVU130
 451              		.loc 1 414 13 is_stmt 0 view .LVU131
 452 0080 6D08     		lsrs	r5, r5, #1
 453              	.LVL30:
 454              	.L27:
 395:Drivers/STM32L4xx_HAL_Driver/Src/stm32l4xx_hal_dac_ex.c ****     {
 455              		.loc 1 395 18 is_stmt 1 view .LVU132
 456 0082 9DB1     		cbz	r5, .L39
 398:Drivers/STM32L4xx_HAL_Driver/Src/stm32l4xx_hal_dac_ex.c **** 
 457              		.loc 1 398 7 view .LVU133
 458 0084 2168     		ldr	r1, [r4]
 459 0086 8B6B     		ldr	r3, [r1, #56]
 460 0088 1F22     		movs	r2, #31
 461 008a BA40     		lsls	r2, r2, r7
 462 008c 23EA0203 		bic	r3, r3, r2
 463 0090 06FA07F2 		lsl	r2, r6, r7
 464 0094 1343     		orrs	r3, r3, r2
 465 0096 8B63     		str	r3, [r1, #56]
 402:Drivers/STM32L4xx_HAL_Driver/Src/stm32l4xx_hal_dac_ex.c **** 
 466              		.loc 1 402 7 view .LVU134
 467 0098 0120     		movs	r0, #1
 468 009a FFF7FEFF 		bl	HAL_Delay
 469              	.LVL31:
 404:Drivers/STM32L4xx_HAL_Driver/Src/stm32l4xx_hal_dac_ex.c ****       {
 470              		.loc 1 404 7 view .LVU135
 404:Drivers/STM32L4xx_HAL_Driver/Src/stm32l4xx_hal_dac_ex.c ****       {
 471              		.loc 1 404 16 is_stmt 0 view .LVU136
 472 009e 2368     		ldr	r3, [r4]
 404:Drivers/STM32L4xx_HAL_Driver/Src/stm32l4xx_hal_dac_ex.c ****       {
 473              		.loc 1 404 26 view .LVU137
 474 00a0 5B6B     		ldr	r3, [r3, #52]
 404:Drivers/STM32L4xx_HAL_Driver/Src/stm32l4xx_hal_dac_ex.c ****       {
 475              		.loc 1 404 10 view .LVU138
 476 00a2 38EA0303 		bics	r3, r8, r3
 477 00a6 EAD1     		bne	.L28
 407:Drivers/STM32L4xx_HAL_Driver/Src/stm32l4xx_hal_dac_ex.c ****       }
 478              		.loc 1 407 9 is_stmt 1 view .LVU139
 407:Drivers/STM32L4xx_HAL_Driver/Src/stm32l4xx_hal_dac_ex.c ****       }
 479              		.loc 1 407 23 is_stmt 0 view .LVU140
 480 00a8 761B     		subs	r6, r6, r5
 481              	.LVL32:
 407:Drivers/STM32L4xx_HAL_Driver/Src/stm32l4xx_hal_dac_ex.c ****       }
 482              		.loc 1 407 23 view .LVU141
 483 00aa E9E7     		b	.L29
 484              	.L39:
 415:Drivers/STM32L4xx_HAL_Driver/Src/stm32l4xx_hal_dac_ex.c ****     }
 416:Drivers/STM32L4xx_HAL_Driver/Src/stm32l4xx_hal_dac_ex.c **** 
 417:Drivers/STM32L4xx_HAL_Driver/Src/stm32l4xx_hal_dac_ex.c ****     /* Still need to check if right calibration is current value or one step below */
 418:Drivers/STM32L4xx_HAL_Driver/Src/stm32l4xx_hal_dac_ex.c ****     /* Indeed the first value that causes the DAC_SR_CAL_FLAGx bit to change from 0 to 1  */
 419:Drivers/STM32L4xx_HAL_Driver/Src/stm32l4xx_hal_dac_ex.c ****     /* Set candidate trimming */
 420:Drivers/STM32L4xx_HAL_Driver/Src/stm32l4xx_hal_dac_ex.c ****     MODIFY_REG(hdac->Instance->CCR, (DAC_CCR_OTRIM1 << (Channel & 0x10UL)), (trimmingvalue << (Chan
 485              		.loc 1 420 5 is_stmt 1 view .LVU142
ARM GAS  C:\Users\ldu08\AppData\Local\Temp\ccIB8tUx.s 			page 17


 486 00ac 2168     		ldr	r1, [r4]
 487 00ae 8B6B     		ldr	r3, [r1, #56]
 488 00b0 1F22     		movs	r2, #31
 489 00b2 BA40     		lsls	r2, r2, r7
 490 00b4 D543     		mvns	r5, r2
 491              	.LVL33:
 492              		.loc 1 420 5 is_stmt 0 view .LVU143
 493 00b6 23EA0203 		bic	r3, r3, r2
 494 00ba 06FA07F2 		lsl	r2, r6, r7
 495 00be 1343     		orrs	r3, r3, r2
 496 00c0 8B63     		str	r3, [r1, #56]
 421:Drivers/STM32L4xx_HAL_Driver/Src/stm32l4xx_hal_dac_ex.c **** 
 422:Drivers/STM32L4xx_HAL_Driver/Src/stm32l4xx_hal_dac_ex.c ****     /* tOFFTRIMmax delay x ms as per datasheet (electrical characteristics */
 423:Drivers/STM32L4xx_HAL_Driver/Src/stm32l4xx_hal_dac_ex.c ****     /* i.e. minimum time needed between two calibration steps */
 424:Drivers/STM32L4xx_HAL_Driver/Src/stm32l4xx_hal_dac_ex.c ****     HAL_Delay(1U);
 497              		.loc 1 424 5 is_stmt 1 view .LVU144
 498 00c2 0120     		movs	r0, #1
 499 00c4 FFF7FEFF 		bl	HAL_Delay
 500              	.LVL34:
 425:Drivers/STM32L4xx_HAL_Driver/Src/stm32l4xx_hal_dac_ex.c **** 
 426:Drivers/STM32L4xx_HAL_Driver/Src/stm32l4xx_hal_dac_ex.c ****     if ((hdac->Instance->SR & (DAC_SR_CAL_FLAG1 << (Channel & 0x10UL))) == 0UL)
 501              		.loc 1 426 5 view .LVU145
 502              		.loc 1 426 14 is_stmt 0 view .LVU146
 503 00c8 2368     		ldr	r3, [r4]
 504              		.loc 1 426 24 view .LVU147
 505 00ca 5A6B     		ldr	r2, [r3, #52]
 506              		.loc 1 426 8 view .LVU148
 507 00cc 18EA020F 		tst	r8, r2
 508 00d0 06D1     		bne	.L31
 427:Drivers/STM32L4xx_HAL_Driver/Src/stm32l4xx_hal_dac_ex.c ****     {
 428:Drivers/STM32L4xx_HAL_Driver/Src/stm32l4xx_hal_dac_ex.c ****       /* OPAMP_CSR_OUTCAL is actually one value more */
 429:Drivers/STM32L4xx_HAL_Driver/Src/stm32l4xx_hal_dac_ex.c ****       trimmingvalue++;
 509              		.loc 1 429 7 is_stmt 1 view .LVU149
 510              		.loc 1 429 20 is_stmt 0 view .LVU150
 511 00d2 0136     		adds	r6, r6, #1
 512              	.LVL35:
 430:Drivers/STM32L4xx_HAL_Driver/Src/stm32l4xx_hal_dac_ex.c ****       /* Set right trimming */
 431:Drivers/STM32L4xx_HAL_Driver/Src/stm32l4xx_hal_dac_ex.c ****       MODIFY_REG(hdac->Instance->CCR, (DAC_CCR_OTRIM1 << (Channel & 0x10UL)), (trimmingvalue << (Ch
 513              		.loc 1 431 7 is_stmt 1 view .LVU151
 514 00d4 9A6B     		ldr	r2, [r3, #56]
 515 00d6 1540     		ands	r5, r5, r2
 516 00d8 06FA07F7 		lsl	r7, r6, r7
 517 00dc 3D43     		orrs	r5, r5, r7
 518 00de 9D63     		str	r5, [r3, #56]
 519              	.L31:
 432:Drivers/STM32L4xx_HAL_Driver/Src/stm32l4xx_hal_dac_ex.c ****     }
 433:Drivers/STM32L4xx_HAL_Driver/Src/stm32l4xx_hal_dac_ex.c **** 
 434:Drivers/STM32L4xx_HAL_Driver/Src/stm32l4xx_hal_dac_ex.c ****     /* Disable the selected DAC channel calibration */
 435:Drivers/STM32L4xx_HAL_Driver/Src/stm32l4xx_hal_dac_ex.c ****     /* i.e. clear DAC_CR_CENx bit */
 436:Drivers/STM32L4xx_HAL_Driver/Src/stm32l4xx_hal_dac_ex.c ****     CLEAR_BIT((hdac->Instance->CR), (DAC_CR_CEN1 << (Channel & 0x10UL)));
 520              		.loc 1 436 5 view .LVU152
 521 00e0 2268     		ldr	r2, [r4]
 522 00e2 1368     		ldr	r3, [r2]
 523 00e4 23EA0803 		bic	r3, r3, r8
 524 00e8 1360     		str	r3, [r2]
 437:Drivers/STM32L4xx_HAL_Driver/Src/stm32l4xx_hal_dac_ex.c **** 
 438:Drivers/STM32L4xx_HAL_Driver/Src/stm32l4xx_hal_dac_ex.c ****     sConfig->DAC_TrimmingValue = trimmingvalue;
ARM GAS  C:\Users\ldu08\AppData\Local\Temp\ccIB8tUx.s 			page 18


 525              		.loc 1 438 5 view .LVU153
 526              		.loc 1 438 32 is_stmt 0 view .LVU154
 527 00ea C9F81460 		str	r6, [r9, #20]
 439:Drivers/STM32L4xx_HAL_Driver/Src/stm32l4xx_hal_dac_ex.c ****     sConfig->DAC_UserTrimming = DAC_TRIMMING_USER;
 528              		.loc 1 439 5 is_stmt 1 view .LVU155
 529              		.loc 1 439 31 is_stmt 0 view .LVU156
 530 00ee 0123     		movs	r3, #1
 531 00f0 C9F81030 		str	r3, [r9, #16]
 440:Drivers/STM32L4xx_HAL_Driver/Src/stm32l4xx_hal_dac_ex.c **** 
 441:Drivers/STM32L4xx_HAL_Driver/Src/stm32l4xx_hal_dac_ex.c ****     /* Restore configuration */
 442:Drivers/STM32L4xx_HAL_Driver/Src/stm32l4xx_hal_dac_ex.c ****     MODIFY_REG(hdac->Instance->MCR, (DAC_MCR_MODE1 << (Channel & 0x10UL)), oldmodeconfiguration);
 532              		.loc 1 442 5 is_stmt 1 view .LVU157
 533 00f4 2268     		ldr	r2, [r4]
 534 00f6 D36B     		ldr	r3, [r2, #60]
 535 00f8 0AEA030A 		and	r10, r10, r3
 536 00fc 4AEA0B03 		orr	r3, r10, fp
 537 0100 D363     		str	r3, [r2, #60]
 443:Drivers/STM32L4xx_HAL_Driver/Src/stm32l4xx_hal_dac_ex.c **** 
 444:Drivers/STM32L4xx_HAL_Driver/Src/stm32l4xx_hal_dac_ex.c ****     /* Process unlocked */
 445:Drivers/STM32L4xx_HAL_Driver/Src/stm32l4xx_hal_dac_ex.c ****     __HAL_UNLOCK(hdac);
 538              		.loc 1 445 5 view .LVU158
 539              		.loc 1 445 5 view .LVU159
 540 0102 0020     		movs	r0, #0
 541 0104 6071     		strb	r0, [r4, #5]
 542              	.LVL36:
 543              	.L24:
 446:Drivers/STM32L4xx_HAL_Driver/Src/stm32l4xx_hal_dac_ex.c ****   }
 447:Drivers/STM32L4xx_HAL_Driver/Src/stm32l4xx_hal_dac_ex.c **** 
 448:Drivers/STM32L4xx_HAL_Driver/Src/stm32l4xx_hal_dac_ex.c ****   return status;
 449:Drivers/STM32L4xx_HAL_Driver/Src/stm32l4xx_hal_dac_ex.c **** }
 544              		.loc 1 449 1 is_stmt 0 view .LVU160
 545 0106 03B0     		add	sp, sp, #12
 546              		.cfi_def_cfa_offset 36
 547              		@ sp needed
 548 0108 BDE8F08F 		pop	{r4, r5, r6, r7, r8, r9, r10, fp, pc}
 549              	.LVL37:
 550              	.L32:
 551              		.cfi_def_cfa_offset 0
 552              		.cfi_restore 4
 553              		.cfi_restore 5
 554              		.cfi_restore 6
 555              		.cfi_restore 7
 556              		.cfi_restore 8
 557              		.cfi_restore 9
 558              		.cfi_restore 10
 559              		.cfi_restore 11
 560              		.cfi_restore 14
 343:Drivers/STM32L4xx_HAL_Driver/Src/stm32l4xx_hal_dac_ex.c ****   }
 561              		.loc 1 343 12 view .LVU161
 562 010c 0120     		movs	r0, #1
 563              	.LVL38:
 564              		.loc 1 449 1 view .LVU162
 565 010e 7047     		bx	lr
 566              	.LVL39:
 567              	.L33:
 568              		.cfi_def_cfa_offset 48
 569              		.cfi_offset 4, -36
ARM GAS  C:\Users\ldu08\AppData\Local\Temp\ccIB8tUx.s 			page 19


 570              		.cfi_offset 5, -32
 571              		.cfi_offset 6, -28
 572              		.cfi_offset 7, -24
 573              		.cfi_offset 8, -20
 574              		.cfi_offset 9, -16
 575              		.cfi_offset 10, -12
 576              		.cfi_offset 11, -8
 577              		.cfi_offset 14, -4
 347:Drivers/STM32L4xx_HAL_Driver/Src/stm32l4xx_hal_dac_ex.c ****   }
 578              		.loc 1 347 12 view .LVU163
 579 0110 0120     		movs	r0, #1
 580              	.LVL40:
 347:Drivers/STM32L4xx_HAL_Driver/Src/stm32l4xx_hal_dac_ex.c ****   }
 581              		.loc 1 347 12 view .LVU164
 582 0112 F8E7     		b	.L24
 583              	.LVL41:
 584              	.L34:
 352:Drivers/STM32L4xx_HAL_Driver/Src/stm32l4xx_hal_dac_ex.c **** 
 585              		.loc 1 352 5 view .LVU165
 586 0114 0220     		movs	r0, #2
 587              	.LVL42:
 352:Drivers/STM32L4xx_HAL_Driver/Src/stm32l4xx_hal_dac_ex.c **** 
 588              		.loc 1 352 5 view .LVU166
 589 0116 F6E7     		b	.L24
 590              		.cfi_endproc
 591              	.LFE328:
 593              		.section	.text.HAL_DACEx_SetUserTrimming,"ax",%progbits
 594              		.align	1
 595              		.global	HAL_DACEx_SetUserTrimming
 596              		.syntax unified
 597              		.thumb
 598              		.thumb_func
 600              	HAL_DACEx_SetUserTrimming:
 601              	.LVL43:
 602              	.LFB329:
 450:Drivers/STM32L4xx_HAL_Driver/Src/stm32l4xx_hal_dac_ex.c **** 
 451:Drivers/STM32L4xx_HAL_Driver/Src/stm32l4xx_hal_dac_ex.c **** /**
 452:Drivers/STM32L4xx_HAL_Driver/Src/stm32l4xx_hal_dac_ex.c ****   * @brief  Set the trimming mode and trimming value (user trimming mode applied).
 453:Drivers/STM32L4xx_HAL_Driver/Src/stm32l4xx_hal_dac_ex.c ****   * @param  hdac pointer to a DAC_HandleTypeDef structure that contains
 454:Drivers/STM32L4xx_HAL_Driver/Src/stm32l4xx_hal_dac_ex.c ****   *         the configuration information for the specified DAC.
 455:Drivers/STM32L4xx_HAL_Driver/Src/stm32l4xx_hal_dac_ex.c ****   * @param  sConfig DAC configuration structure updated with new DAC trimming value.
 456:Drivers/STM32L4xx_HAL_Driver/Src/stm32l4xx_hal_dac_ex.c ****   * @param  Channel The selected DAC channel.
 457:Drivers/STM32L4xx_HAL_Driver/Src/stm32l4xx_hal_dac_ex.c ****   *          This parameter can be one of the following values:
 458:Drivers/STM32L4xx_HAL_Driver/Src/stm32l4xx_hal_dac_ex.c ****   *            @arg DAC_CHANNEL_1: DAC Channel1 selected
 459:Drivers/STM32L4xx_HAL_Driver/Src/stm32l4xx_hal_dac_ex.c ****   *            @arg DAC_CHANNEL_2: DAC Channel2 selected
 460:Drivers/STM32L4xx_HAL_Driver/Src/stm32l4xx_hal_dac_ex.c ****   * @param  NewTrimmingValue DAC new trimming value
 461:Drivers/STM32L4xx_HAL_Driver/Src/stm32l4xx_hal_dac_ex.c ****   * @retval HAL status
 462:Drivers/STM32L4xx_HAL_Driver/Src/stm32l4xx_hal_dac_ex.c ****   */
 463:Drivers/STM32L4xx_HAL_Driver/Src/stm32l4xx_hal_dac_ex.c **** 
 464:Drivers/STM32L4xx_HAL_Driver/Src/stm32l4xx_hal_dac_ex.c **** HAL_StatusTypeDef HAL_DACEx_SetUserTrimming(DAC_HandleTypeDef *hdac, DAC_ChannelConfTypeDef *sConfi
 465:Drivers/STM32L4xx_HAL_Driver/Src/stm32l4xx_hal_dac_ex.c ****                                             uint32_t NewTrimmingValue)
 466:Drivers/STM32L4xx_HAL_Driver/Src/stm32l4xx_hal_dac_ex.c **** {
 603              		.loc 1 466 1 is_stmt 1 view -0
 604              		.cfi_startproc
 605              		@ args = 0, pretend = 0, frame = 0
 606              		@ frame_needed = 0, uses_anonymous_args = 0
 467:Drivers/STM32L4xx_HAL_Driver/Src/stm32l4xx_hal_dac_ex.c ****   HAL_StatusTypeDef status = HAL_OK;
ARM GAS  C:\Users\ldu08\AppData\Local\Temp\ccIB8tUx.s 			page 20


 607              		.loc 1 467 3 view .LVU168
 468:Drivers/STM32L4xx_HAL_Driver/Src/stm32l4xx_hal_dac_ex.c **** 
 469:Drivers/STM32L4xx_HAL_Driver/Src/stm32l4xx_hal_dac_ex.c ****   /* Check the parameters */
 470:Drivers/STM32L4xx_HAL_Driver/Src/stm32l4xx_hal_dac_ex.c ****   assert_param(IS_DAC_CHANNEL(Channel));
 608              		.loc 1 470 3 view .LVU169
 471:Drivers/STM32L4xx_HAL_Driver/Src/stm32l4xx_hal_dac_ex.c ****   assert_param(IS_DAC_NEWTRIMMINGVALUE(NewTrimmingValue));
 609              		.loc 1 471 3 view .LVU170
 472:Drivers/STM32L4xx_HAL_Driver/Src/stm32l4xx_hal_dac_ex.c **** 
 473:Drivers/STM32L4xx_HAL_Driver/Src/stm32l4xx_hal_dac_ex.c ****  /* Check the DAC handle allocation */
 474:Drivers/STM32L4xx_HAL_Driver/Src/stm32l4xx_hal_dac_ex.c ****   if (hdac == NULL)
 610              		.loc 1 474 3 view .LVU171
 611              		.loc 1 474 6 is_stmt 0 view .LVU172
 612 0000 E0B1     		cbz	r0, .L42
 466:Drivers/STM32L4xx_HAL_Driver/Src/stm32l4xx_hal_dac_ex.c ****   HAL_StatusTypeDef status = HAL_OK;
 613              		.loc 1 466 1 view .LVU173
 614 0002 30B5     		push	{r4, r5, lr}
 615              		.cfi_def_cfa_offset 12
 616              		.cfi_offset 4, -12
 617              		.cfi_offset 5, -8
 618              		.cfi_offset 14, -4
 619 0004 8646     		mov	lr, r0
 475:Drivers/STM32L4xx_HAL_Driver/Src/stm32l4xx_hal_dac_ex.c ****   {
 476:Drivers/STM32L4xx_HAL_Driver/Src/stm32l4xx_hal_dac_ex.c ****     status = HAL_ERROR;
 477:Drivers/STM32L4xx_HAL_Driver/Src/stm32l4xx_hal_dac_ex.c ****   }
 478:Drivers/STM32L4xx_HAL_Driver/Src/stm32l4xx_hal_dac_ex.c ****   else
 479:Drivers/STM32L4xx_HAL_Driver/Src/stm32l4xx_hal_dac_ex.c ****   {
 480:Drivers/STM32L4xx_HAL_Driver/Src/stm32l4xx_hal_dac_ex.c ****     /* Process locked */
 481:Drivers/STM32L4xx_HAL_Driver/Src/stm32l4xx_hal_dac_ex.c ****     __HAL_LOCK(hdac);
 620              		.loc 1 481 5 is_stmt 1 view .LVU174
 621              		.loc 1 481 5 view .LVU175
 622 0006 4079     		ldrb	r0, [r0, #5]	@ zero_extendqisi2
 623              	.LVL44:
 624              		.loc 1 481 5 is_stmt 0 view .LVU176
 625 0008 0128     		cmp	r0, #1
 626 000a 19D0     		beq	.L43
 627              		.loc 1 481 5 is_stmt 1 discriminator 2 view .LVU177
 628 000c 0124     		movs	r4, #1
 629 000e 8EF80540 		strb	r4, [lr, #5]
 630              		.loc 1 481 5 discriminator 2 view .LVU178
 482:Drivers/STM32L4xx_HAL_Driver/Src/stm32l4xx_hal_dac_ex.c **** 
 483:Drivers/STM32L4xx_HAL_Driver/Src/stm32l4xx_hal_dac_ex.c ****     /* Set new trimming */
 484:Drivers/STM32L4xx_HAL_Driver/Src/stm32l4xx_hal_dac_ex.c ****     MODIFY_REG(hdac->Instance->CCR, (DAC_CCR_OTRIM1 << (Channel & 0x10UL)), (NewTrimmingValue << (C
 631              		.loc 1 484 5 discriminator 2 view .LVU179
 632 0012 DEF80050 		ldr	r5, [lr]
 633 0016 A86B     		ldr	r0, [r5, #56]
 634 0018 02F01002 		and	r2, r2, #16
 635              	.LVL45:
 636              		.loc 1 484 5 is_stmt 0 discriminator 2 view .LVU180
 637 001c 4FF01F0C 		mov	ip, #31
 638 0020 0CFA02FC 		lsl	ip, ip, r2
 639 0024 20EA0C00 		bic	r0, r0, ip
 640 0028 03FA02F2 		lsl	r2, r3, r2
 641 002c 0243     		orrs	r2, r2, r0
 642 002e AA63     		str	r2, [r5, #56]
 485:Drivers/STM32L4xx_HAL_Driver/Src/stm32l4xx_hal_dac_ex.c **** 
 486:Drivers/STM32L4xx_HAL_Driver/Src/stm32l4xx_hal_dac_ex.c ****     /* Update trimming mode */
 487:Drivers/STM32L4xx_HAL_Driver/Src/stm32l4xx_hal_dac_ex.c ****     sConfig->DAC_UserTrimming = DAC_TRIMMING_USER;
ARM GAS  C:\Users\ldu08\AppData\Local\Temp\ccIB8tUx.s 			page 21


 643              		.loc 1 487 5 is_stmt 1 discriminator 2 view .LVU181
 644              		.loc 1 487 31 is_stmt 0 discriminator 2 view .LVU182
 645 0030 0C61     		str	r4, [r1, #16]
 488:Drivers/STM32L4xx_HAL_Driver/Src/stm32l4xx_hal_dac_ex.c ****     sConfig->DAC_TrimmingValue = NewTrimmingValue;
 646              		.loc 1 488 5 is_stmt 1 discriminator 2 view .LVU183
 647              		.loc 1 488 32 is_stmt 0 discriminator 2 view .LVU184
 648 0032 4B61     		str	r3, [r1, #20]
 489:Drivers/STM32L4xx_HAL_Driver/Src/stm32l4xx_hal_dac_ex.c **** 
 490:Drivers/STM32L4xx_HAL_Driver/Src/stm32l4xx_hal_dac_ex.c ****     /* Process unlocked */
 491:Drivers/STM32L4xx_HAL_Driver/Src/stm32l4xx_hal_dac_ex.c ****     __HAL_UNLOCK(hdac);
 649              		.loc 1 491 5 is_stmt 1 discriminator 2 view .LVU185
 650              		.loc 1 491 5 discriminator 2 view .LVU186
 651 0034 0020     		movs	r0, #0
 652 0036 8EF80500 		strb	r0, [lr, #5]
 653              	.L41:
 654              	.LVL46:
 492:Drivers/STM32L4xx_HAL_Driver/Src/stm32l4xx_hal_dac_ex.c ****   }
 493:Drivers/STM32L4xx_HAL_Driver/Src/stm32l4xx_hal_dac_ex.c ****   return status;
 494:Drivers/STM32L4xx_HAL_Driver/Src/stm32l4xx_hal_dac_ex.c **** }
 655              		.loc 1 494 1 is_stmt 0 view .LVU187
 656 003a 30BD     		pop	{r4, r5, pc}
 657              	.LVL47:
 658              	.L42:
 659              		.cfi_def_cfa_offset 0
 660              		.cfi_restore 4
 661              		.cfi_restore 5
 662              		.cfi_restore 14
 476:Drivers/STM32L4xx_HAL_Driver/Src/stm32l4xx_hal_dac_ex.c ****   }
 663              		.loc 1 476 12 view .LVU188
 664 003c 0120     		movs	r0, #1
 665              	.LVL48:
 666              		.loc 1 494 1 view .LVU189
 667 003e 7047     		bx	lr
 668              	.LVL49:
 669              	.L43:
 670              		.cfi_def_cfa_offset 12
 671              		.cfi_offset 4, -12
 672              		.cfi_offset 5, -8
 673              		.cfi_offset 14, -4
 481:Drivers/STM32L4xx_HAL_Driver/Src/stm32l4xx_hal_dac_ex.c **** 
 674              		.loc 1 481 5 view .LVU190
 675 0040 0220     		movs	r0, #2
 676 0042 FAE7     		b	.L41
 677              		.cfi_endproc
 678              	.LFE329:
 680              		.section	.text.HAL_DACEx_GetTrimOffset,"ax",%progbits
 681              		.align	1
 682              		.global	HAL_DACEx_GetTrimOffset
 683              		.syntax unified
 684              		.thumb
 685              		.thumb_func
 687              	HAL_DACEx_GetTrimOffset:
 688              	.LVL50:
 689              	.LFB330:
 495:Drivers/STM32L4xx_HAL_Driver/Src/stm32l4xx_hal_dac_ex.c **** 
 496:Drivers/STM32L4xx_HAL_Driver/Src/stm32l4xx_hal_dac_ex.c **** /**
 497:Drivers/STM32L4xx_HAL_Driver/Src/stm32l4xx_hal_dac_ex.c ****   * @brief  Return the DAC trimming value.
ARM GAS  C:\Users\ldu08\AppData\Local\Temp\ccIB8tUx.s 			page 22


 498:Drivers/STM32L4xx_HAL_Driver/Src/stm32l4xx_hal_dac_ex.c ****   * @param  hdac DAC handle
 499:Drivers/STM32L4xx_HAL_Driver/Src/stm32l4xx_hal_dac_ex.c ****   * @param  Channel The selected DAC channel.
 500:Drivers/STM32L4xx_HAL_Driver/Src/stm32l4xx_hal_dac_ex.c ****   *          This parameter can be one of the following values:
 501:Drivers/STM32L4xx_HAL_Driver/Src/stm32l4xx_hal_dac_ex.c ****   *            @arg DAC_CHANNEL_1: DAC Channel1 selected
 502:Drivers/STM32L4xx_HAL_Driver/Src/stm32l4xx_hal_dac_ex.c ****   *            @arg DAC_CHANNEL_2: DAC Channel2 selected
 503:Drivers/STM32L4xx_HAL_Driver/Src/stm32l4xx_hal_dac_ex.c ****   * @retval Trimming value : range: 0->31
 504:Drivers/STM32L4xx_HAL_Driver/Src/stm32l4xx_hal_dac_ex.c ****   *
 505:Drivers/STM32L4xx_HAL_Driver/Src/stm32l4xx_hal_dac_ex.c ****  */
 506:Drivers/STM32L4xx_HAL_Driver/Src/stm32l4xx_hal_dac_ex.c **** 
 507:Drivers/STM32L4xx_HAL_Driver/Src/stm32l4xx_hal_dac_ex.c **** uint32_t HAL_DACEx_GetTrimOffset(DAC_HandleTypeDef *hdac, uint32_t Channel)
 508:Drivers/STM32L4xx_HAL_Driver/Src/stm32l4xx_hal_dac_ex.c **** {
 690              		.loc 1 508 1 is_stmt 1 view -0
 691              		.cfi_startproc
 692              		@ args = 0, pretend = 0, frame = 0
 693              		@ frame_needed = 0, uses_anonymous_args = 0
 694              		@ link register save eliminated.
 509:Drivers/STM32L4xx_HAL_Driver/Src/stm32l4xx_hal_dac_ex.c ****     /* Check the parameter */
 510:Drivers/STM32L4xx_HAL_Driver/Src/stm32l4xx_hal_dac_ex.c ****     assert_param(IS_DAC_CHANNEL(Channel));
 695              		.loc 1 510 5 view .LVU192
 511:Drivers/STM32L4xx_HAL_Driver/Src/stm32l4xx_hal_dac_ex.c **** 
 512:Drivers/STM32L4xx_HAL_Driver/Src/stm32l4xx_hal_dac_ex.c ****     /* Retrieve trimming  */
 513:Drivers/STM32L4xx_HAL_Driver/Src/stm32l4xx_hal_dac_ex.c ****   return ((hdac->Instance->CCR & (DAC_CCR_OTRIM1 << (Channel & 0x10UL))) >> (Channel & 0x10UL));
 696              		.loc 1 513 3 view .LVU193
 697              		.loc 1 513 16 is_stmt 0 view .LVU194
 698 0000 0368     		ldr	r3, [r0]
 699              		.loc 1 513 26 view .LVU195
 700 0002 986B     		ldr	r0, [r3, #56]
 701              	.LVL51:
 702              		.loc 1 513 62 view .LVU196
 703 0004 01F01001 		and	r1, r1, #16
 704              	.LVL52:
 705              		.loc 1 513 50 view .LVU197
 706 0008 1F23     		movs	r3, #31
 707 000a 8B40     		lsls	r3, r3, r1
 708              		.loc 1 513 32 view .LVU198
 709 000c 1840     		ands	r0, r0, r3
 514:Drivers/STM32L4xx_HAL_Driver/Src/stm32l4xx_hal_dac_ex.c **** }
 710              		.loc 1 514 1 view .LVU199
 711 000e C840     		lsrs	r0, r0, r1
 712 0010 7047     		bx	lr
 713              		.cfi_endproc
 714              	.LFE330:
 716              		.section	.text.HAL_DACEx_DualGetValue,"ax",%progbits
 717              		.align	1
 718              		.global	HAL_DACEx_DualGetValue
 719              		.syntax unified
 720              		.thumb
 721              		.thumb_func
 723              	HAL_DACEx_DualGetValue:
 724              	.LVL53:
 725              	.LFB331:
 515:Drivers/STM32L4xx_HAL_Driver/Src/stm32l4xx_hal_dac_ex.c **** 
 516:Drivers/STM32L4xx_HAL_Driver/Src/stm32l4xx_hal_dac_ex.c **** /**
 517:Drivers/STM32L4xx_HAL_Driver/Src/stm32l4xx_hal_dac_ex.c ****   * @}
 518:Drivers/STM32L4xx_HAL_Driver/Src/stm32l4xx_hal_dac_ex.c ****   */
 519:Drivers/STM32L4xx_HAL_Driver/Src/stm32l4xx_hal_dac_ex.c **** 
 520:Drivers/STM32L4xx_HAL_Driver/Src/stm32l4xx_hal_dac_ex.c **** #if defined (STM32L431xx) || defined (STM32L432xx) || defined (STM32L433xx) || defined (STM32L442xx
ARM GAS  C:\Users\ldu08\AppData\Local\Temp\ccIB8tUx.s 			page 23


 521:Drivers/STM32L4xx_HAL_Driver/Src/stm32l4xx_hal_dac_ex.c ****     defined (STM32L471xx) || defined (STM32L475xx) || defined (STM32L476xx) || defined (STM32L485xx
 522:Drivers/STM32L4xx_HAL_Driver/Src/stm32l4xx_hal_dac_ex.c ****     defined (STM32L4P5xx) || defined (STM32L4Q5xx) || \
 523:Drivers/STM32L4xx_HAL_Driver/Src/stm32l4xx_hal_dac_ex.c ****     defined (STM32L4R5xx) || defined (STM32L4R7xx) || defined (STM32L4R9xx) || defined (STM32L4S5xx
 524:Drivers/STM32L4xx_HAL_Driver/Src/stm32l4xx_hal_dac_ex.c **** 
 525:Drivers/STM32L4xx_HAL_Driver/Src/stm32l4xx_hal_dac_ex.c **** /** @defgroup DACEx_Exported_Functions_Group3 Peripheral Control functions
 526:Drivers/STM32L4xx_HAL_Driver/Src/stm32l4xx_hal_dac_ex.c ****  *  @brief    Extended Peripheral Control functions
 527:Drivers/STM32L4xx_HAL_Driver/Src/stm32l4xx_hal_dac_ex.c ****  *
 528:Drivers/STM32L4xx_HAL_Driver/Src/stm32l4xx_hal_dac_ex.c **** @verbatim
 529:Drivers/STM32L4xx_HAL_Driver/Src/stm32l4xx_hal_dac_ex.c ****   ==============================================================================
 530:Drivers/STM32L4xx_HAL_Driver/Src/stm32l4xx_hal_dac_ex.c ****              ##### Peripheral Control functions #####
 531:Drivers/STM32L4xx_HAL_Driver/Src/stm32l4xx_hal_dac_ex.c ****   ==============================================================================
 532:Drivers/STM32L4xx_HAL_Driver/Src/stm32l4xx_hal_dac_ex.c ****     [..]  This section provides functions allowing to:
 533:Drivers/STM32L4xx_HAL_Driver/Src/stm32l4xx_hal_dac_ex.c ****       (+) Set the specified data holding register value for DAC channel.
 534:Drivers/STM32L4xx_HAL_Driver/Src/stm32l4xx_hal_dac_ex.c **** 
 535:Drivers/STM32L4xx_HAL_Driver/Src/stm32l4xx_hal_dac_ex.c **** @endverbatim
 536:Drivers/STM32L4xx_HAL_Driver/Src/stm32l4xx_hal_dac_ex.c ****   * @{
 537:Drivers/STM32L4xx_HAL_Driver/Src/stm32l4xx_hal_dac_ex.c ****   */
 538:Drivers/STM32L4xx_HAL_Driver/Src/stm32l4xx_hal_dac_ex.c **** 
 539:Drivers/STM32L4xx_HAL_Driver/Src/stm32l4xx_hal_dac_ex.c **** /**
 540:Drivers/STM32L4xx_HAL_Driver/Src/stm32l4xx_hal_dac_ex.c ****   * @brief  Return the last data output value of the selected DAC channel.
 541:Drivers/STM32L4xx_HAL_Driver/Src/stm32l4xx_hal_dac_ex.c ****   * @param  hdac pointer to a DAC_HandleTypeDef structure that contains
 542:Drivers/STM32L4xx_HAL_Driver/Src/stm32l4xx_hal_dac_ex.c ****   *         the configuration information for the specified DAC.
 543:Drivers/STM32L4xx_HAL_Driver/Src/stm32l4xx_hal_dac_ex.c ****   * @retval The selected DAC channel data output value.
 544:Drivers/STM32L4xx_HAL_Driver/Src/stm32l4xx_hal_dac_ex.c ****   */
 545:Drivers/STM32L4xx_HAL_Driver/Src/stm32l4xx_hal_dac_ex.c **** uint32_t HAL_DACEx_DualGetValue(DAC_HandleTypeDef *hdac)
 546:Drivers/STM32L4xx_HAL_Driver/Src/stm32l4xx_hal_dac_ex.c **** {
 726              		.loc 1 546 1 is_stmt 1 view -0
 727              		.cfi_startproc
 728              		@ args = 0, pretend = 0, frame = 0
 729              		@ frame_needed = 0, uses_anonymous_args = 0
 730              		@ link register save eliminated.
 547:Drivers/STM32L4xx_HAL_Driver/Src/stm32l4xx_hal_dac_ex.c ****   uint32_t tmp = 0U;
 731              		.loc 1 547 3 view .LVU201
 548:Drivers/STM32L4xx_HAL_Driver/Src/stm32l4xx_hal_dac_ex.c **** 
 549:Drivers/STM32L4xx_HAL_Driver/Src/stm32l4xx_hal_dac_ex.c ****   tmp |= hdac->Instance->DOR1;
 732              		.loc 1 549 3 view .LVU202
 733              		.loc 1 549 14 is_stmt 0 view .LVU203
 734 0000 0368     		ldr	r3, [r0]
 735              		.loc 1 549 24 view .LVU204
 736 0002 DA6A     		ldr	r2, [r3, #44]
 737              	.LVL54:
 550:Drivers/STM32L4xx_HAL_Driver/Src/stm32l4xx_hal_dac_ex.c **** 
 551:Drivers/STM32L4xx_HAL_Driver/Src/stm32l4xx_hal_dac_ex.c ****   tmp |= hdac->Instance->DOR2 << 16U;
 738              		.loc 1 551 3 is_stmt 1 view .LVU205
 739              		.loc 1 551 24 is_stmt 0 view .LVU206
 740 0004 186B     		ldr	r0, [r3, #48]
 741              	.LVL55:
 552:Drivers/STM32L4xx_HAL_Driver/Src/stm32l4xx_hal_dac_ex.c **** 
 553:Drivers/STM32L4xx_HAL_Driver/Src/stm32l4xx_hal_dac_ex.c ****   /* Returns the DAC channel data output register value */
 554:Drivers/STM32L4xx_HAL_Driver/Src/stm32l4xx_hal_dac_ex.c ****   return tmp;
 742              		.loc 1 554 3 is_stmt 1 view .LVU207
 555:Drivers/STM32L4xx_HAL_Driver/Src/stm32l4xx_hal_dac_ex.c **** }
 743              		.loc 1 555 1 is_stmt 0 view .LVU208
 744 0006 42EA0040 		orr	r0, r2, r0, lsl #16
 745              	.LVL56:
 746              		.loc 1 555 1 view .LVU209
 747 000a 7047     		bx	lr
ARM GAS  C:\Users\ldu08\AppData\Local\Temp\ccIB8tUx.s 			page 24


 748              		.cfi_endproc
 749              	.LFE331:
 751              		.section	.text.DAC_DMAConvCpltCh2,"ax",%progbits
 752              		.align	1
 753              		.global	DAC_DMAConvCpltCh2
 754              		.syntax unified
 755              		.thumb
 756              		.thumb_func
 758              	DAC_DMAConvCpltCh2:
 759              	.LVL57:
 760              	.LFB332:
 556:Drivers/STM32L4xx_HAL_Driver/Src/stm32l4xx_hal_dac_ex.c **** 
 557:Drivers/STM32L4xx_HAL_Driver/Src/stm32l4xx_hal_dac_ex.c **** /**
 558:Drivers/STM32L4xx_HAL_Driver/Src/stm32l4xx_hal_dac_ex.c ****   * @}
 559:Drivers/STM32L4xx_HAL_Driver/Src/stm32l4xx_hal_dac_ex.c ****   */
 560:Drivers/STM32L4xx_HAL_Driver/Src/stm32l4xx_hal_dac_ex.c **** 
 561:Drivers/STM32L4xx_HAL_Driver/Src/stm32l4xx_hal_dac_ex.c **** #endif  /* STM32L431xx STM32L432xx STM32L433xx STM32L442xx STM32L443xx                         */
 562:Drivers/STM32L4xx_HAL_Driver/Src/stm32l4xx_hal_dac_ex.c ****         /* STM32L471xx STM32L475xx STM32L476xx STM32L485xx STM32L486xx STM32L496xx STM32L4A6xx */
 563:Drivers/STM32L4xx_HAL_Driver/Src/stm32l4xx_hal_dac_ex.c ****         /* STM32L4P5xx STM32L4Q5xx                                                             */
 564:Drivers/STM32L4xx_HAL_Driver/Src/stm32l4xx_hal_dac_ex.c ****         /* STM32L4R5xx STM32L4R7xx STM32L4R9xx STM32L4S5xx STM32L4S7xx STM32L4S9xx             */
 565:Drivers/STM32L4xx_HAL_Driver/Src/stm32l4xx_hal_dac_ex.c **** 
 566:Drivers/STM32L4xx_HAL_Driver/Src/stm32l4xx_hal_dac_ex.c **** /**
 567:Drivers/STM32L4xx_HAL_Driver/Src/stm32l4xx_hal_dac_ex.c ****   * @}
 568:Drivers/STM32L4xx_HAL_Driver/Src/stm32l4xx_hal_dac_ex.c ****   */
 569:Drivers/STM32L4xx_HAL_Driver/Src/stm32l4xx_hal_dac_ex.c **** 
 570:Drivers/STM32L4xx_HAL_Driver/Src/stm32l4xx_hal_dac_ex.c **** #if defined (STM32L431xx) || defined (STM32L432xx) || defined (STM32L433xx) || defined (STM32L442xx
 571:Drivers/STM32L4xx_HAL_Driver/Src/stm32l4xx_hal_dac_ex.c ****     defined (STM32L471xx) || defined (STM32L475xx) || defined (STM32L476xx) || defined (STM32L485xx
 572:Drivers/STM32L4xx_HAL_Driver/Src/stm32l4xx_hal_dac_ex.c ****     defined (STM32L4P5xx) || defined (STM32L4Q5xx) || \
 573:Drivers/STM32L4xx_HAL_Driver/Src/stm32l4xx_hal_dac_ex.c ****     defined (STM32L4R5xx) || defined (STM32L4R7xx) || defined (STM32L4R9xx) || defined (STM32L4S5xx
 574:Drivers/STM32L4xx_HAL_Driver/Src/stm32l4xx_hal_dac_ex.c **** 
 575:Drivers/STM32L4xx_HAL_Driver/Src/stm32l4xx_hal_dac_ex.c **** /* Private functions ---------------------------------------------------------*/
 576:Drivers/STM32L4xx_HAL_Driver/Src/stm32l4xx_hal_dac_ex.c **** /** @defgroup DACEx_Private_Functions DACEx private functions
 577:Drivers/STM32L4xx_HAL_Driver/Src/stm32l4xx_hal_dac_ex.c ****  *  @brief    Extended private functions
 578:Drivers/STM32L4xx_HAL_Driver/Src/stm32l4xx_hal_dac_ex.c ****    * @{
 579:Drivers/STM32L4xx_HAL_Driver/Src/stm32l4xx_hal_dac_ex.c ****   */
 580:Drivers/STM32L4xx_HAL_Driver/Src/stm32l4xx_hal_dac_ex.c **** 
 581:Drivers/STM32L4xx_HAL_Driver/Src/stm32l4xx_hal_dac_ex.c **** /**
 582:Drivers/STM32L4xx_HAL_Driver/Src/stm32l4xx_hal_dac_ex.c ****   * @brief  DMA conversion complete callback.
 583:Drivers/STM32L4xx_HAL_Driver/Src/stm32l4xx_hal_dac_ex.c ****   * @param  hdma pointer to a DMA_HandleTypeDef structure that contains
 584:Drivers/STM32L4xx_HAL_Driver/Src/stm32l4xx_hal_dac_ex.c ****   *                the configuration information for the specified DMA module.
 585:Drivers/STM32L4xx_HAL_Driver/Src/stm32l4xx_hal_dac_ex.c ****   * @retval None
 586:Drivers/STM32L4xx_HAL_Driver/Src/stm32l4xx_hal_dac_ex.c ****   */
 587:Drivers/STM32L4xx_HAL_Driver/Src/stm32l4xx_hal_dac_ex.c **** void DAC_DMAConvCpltCh2(DMA_HandleTypeDef *hdma)
 588:Drivers/STM32L4xx_HAL_Driver/Src/stm32l4xx_hal_dac_ex.c **** {
 761              		.loc 1 588 1 is_stmt 1 view -0
 762              		.cfi_startproc
 763              		@ args = 0, pretend = 0, frame = 0
 764              		@ frame_needed = 0, uses_anonymous_args = 0
 765              		.loc 1 588 1 is_stmt 0 view .LVU211
 766 0000 10B5     		push	{r4, lr}
 767              		.cfi_def_cfa_offset 8
 768              		.cfi_offset 4, -8
 769              		.cfi_offset 14, -4
 589:Drivers/STM32L4xx_HAL_Driver/Src/stm32l4xx_hal_dac_ex.c ****   DAC_HandleTypeDef *hdac = (DAC_HandleTypeDef *)((DMA_HandleTypeDef *)hdma)->Parent;
 770              		.loc 1 589 3 is_stmt 1 view .LVU212
 771              		.loc 1 589 22 is_stmt 0 view .LVU213
 772 0002 846A     		ldr	r4, [r0, #40]
ARM GAS  C:\Users\ldu08\AppData\Local\Temp\ccIB8tUx.s 			page 25


 773              	.LVL58:
 590:Drivers/STM32L4xx_HAL_Driver/Src/stm32l4xx_hal_dac_ex.c **** 
 591:Drivers/STM32L4xx_HAL_Driver/Src/stm32l4xx_hal_dac_ex.c **** #if (USE_HAL_DAC_REGISTER_CALLBACKS == 1)
 592:Drivers/STM32L4xx_HAL_Driver/Src/stm32l4xx_hal_dac_ex.c ****   hdac->ConvCpltCallbackCh2(hdac);
 593:Drivers/STM32L4xx_HAL_Driver/Src/stm32l4xx_hal_dac_ex.c **** #else
 594:Drivers/STM32L4xx_HAL_Driver/Src/stm32l4xx_hal_dac_ex.c ****   HAL_DACEx_ConvCpltCallbackCh2(hdac);
 774              		.loc 1 594 3 is_stmt 1 view .LVU214
 775 0004 2046     		mov	r0, r4
 776              	.LVL59:
 777              		.loc 1 594 3 is_stmt 0 view .LVU215
 778 0006 FFF7FEFF 		bl	HAL_DACEx_ConvCpltCallbackCh2
 779              	.LVL60:
 595:Drivers/STM32L4xx_HAL_Driver/Src/stm32l4xx_hal_dac_ex.c **** #endif /* USE_HAL_DAC_REGISTER_CALLBACKS */
 596:Drivers/STM32L4xx_HAL_Driver/Src/stm32l4xx_hal_dac_ex.c **** 
 597:Drivers/STM32L4xx_HAL_Driver/Src/stm32l4xx_hal_dac_ex.c ****   hdac->State = HAL_DAC_STATE_READY;
 780              		.loc 1 597 3 is_stmt 1 view .LVU216
 781              		.loc 1 597 15 is_stmt 0 view .LVU217
 782 000a 0123     		movs	r3, #1
 783 000c 2371     		strb	r3, [r4, #4]
 598:Drivers/STM32L4xx_HAL_Driver/Src/stm32l4xx_hal_dac_ex.c **** }
 784              		.loc 1 598 1 view .LVU218
 785 000e 10BD     		pop	{r4, pc}
 786              		.loc 1 598 1 view .LVU219
 787              		.cfi_endproc
 788              	.LFE332:
 790              		.section	.text.DAC_DMAHalfConvCpltCh2,"ax",%progbits
 791              		.align	1
 792              		.global	DAC_DMAHalfConvCpltCh2
 793              		.syntax unified
 794              		.thumb
 795              		.thumb_func
 797              	DAC_DMAHalfConvCpltCh2:
 798              	.LVL61:
 799              	.LFB333:
 599:Drivers/STM32L4xx_HAL_Driver/Src/stm32l4xx_hal_dac_ex.c **** 
 600:Drivers/STM32L4xx_HAL_Driver/Src/stm32l4xx_hal_dac_ex.c **** /**
 601:Drivers/STM32L4xx_HAL_Driver/Src/stm32l4xx_hal_dac_ex.c ****   * @brief  DMA half transfer complete callback.
 602:Drivers/STM32L4xx_HAL_Driver/Src/stm32l4xx_hal_dac_ex.c ****   * @param  hdma pointer to a DMA_HandleTypeDef structure that contains
 603:Drivers/STM32L4xx_HAL_Driver/Src/stm32l4xx_hal_dac_ex.c ****   *                the configuration information for the specified DMA module.
 604:Drivers/STM32L4xx_HAL_Driver/Src/stm32l4xx_hal_dac_ex.c ****   * @retval None
 605:Drivers/STM32L4xx_HAL_Driver/Src/stm32l4xx_hal_dac_ex.c ****   */
 606:Drivers/STM32L4xx_HAL_Driver/Src/stm32l4xx_hal_dac_ex.c **** void DAC_DMAHalfConvCpltCh2(DMA_HandleTypeDef *hdma)
 607:Drivers/STM32L4xx_HAL_Driver/Src/stm32l4xx_hal_dac_ex.c **** {
 800              		.loc 1 607 1 is_stmt 1 view -0
 801              		.cfi_startproc
 802              		@ args = 0, pretend = 0, frame = 0
 803              		@ frame_needed = 0, uses_anonymous_args = 0
 804              		.loc 1 607 1 is_stmt 0 view .LVU221
 805 0000 08B5     		push	{r3, lr}
 806              		.cfi_def_cfa_offset 8
 807              		.cfi_offset 3, -8
 808              		.cfi_offset 14, -4
 608:Drivers/STM32L4xx_HAL_Driver/Src/stm32l4xx_hal_dac_ex.c ****   DAC_HandleTypeDef *hdac = (DAC_HandleTypeDef *)((DMA_HandleTypeDef *)hdma)->Parent;
 809              		.loc 1 608 3 is_stmt 1 view .LVU222
 810              	.LVL62:
 609:Drivers/STM32L4xx_HAL_Driver/Src/stm32l4xx_hal_dac_ex.c ****   /* Conversion complete callback */
 610:Drivers/STM32L4xx_HAL_Driver/Src/stm32l4xx_hal_dac_ex.c **** #if (USE_HAL_DAC_REGISTER_CALLBACKS == 1)
ARM GAS  C:\Users\ldu08\AppData\Local\Temp\ccIB8tUx.s 			page 26


 611:Drivers/STM32L4xx_HAL_Driver/Src/stm32l4xx_hal_dac_ex.c ****   hdac->ConvHalfCpltCallbackCh2(hdac);
 612:Drivers/STM32L4xx_HAL_Driver/Src/stm32l4xx_hal_dac_ex.c **** #else
 613:Drivers/STM32L4xx_HAL_Driver/Src/stm32l4xx_hal_dac_ex.c ****   HAL_DACEx_ConvHalfCpltCallbackCh2(hdac);
 811              		.loc 1 613 3 view .LVU223
 812 0002 806A     		ldr	r0, [r0, #40]
 813              	.LVL63:
 814              		.loc 1 613 3 is_stmt 0 view .LVU224
 815 0004 FFF7FEFF 		bl	HAL_DACEx_ConvHalfCpltCallbackCh2
 816              	.LVL64:
 614:Drivers/STM32L4xx_HAL_Driver/Src/stm32l4xx_hal_dac_ex.c **** #endif /* USE_HAL_DAC_REGISTER_CALLBACKS */
 615:Drivers/STM32L4xx_HAL_Driver/Src/stm32l4xx_hal_dac_ex.c **** }
 817              		.loc 1 615 1 view .LVU225
 818 0008 08BD     		pop	{r3, pc}
 819              		.cfi_endproc
 820              	.LFE333:
 822              		.section	.text.DAC_DMAErrorCh2,"ax",%progbits
 823              		.align	1
 824              		.global	DAC_DMAErrorCh2
 825              		.syntax unified
 826              		.thumb
 827              		.thumb_func
 829              	DAC_DMAErrorCh2:
 830              	.LVL65:
 831              	.LFB334:
 616:Drivers/STM32L4xx_HAL_Driver/Src/stm32l4xx_hal_dac_ex.c **** 
 617:Drivers/STM32L4xx_HAL_Driver/Src/stm32l4xx_hal_dac_ex.c **** /**
 618:Drivers/STM32L4xx_HAL_Driver/Src/stm32l4xx_hal_dac_ex.c ****   * @brief  DMA error callback.
 619:Drivers/STM32L4xx_HAL_Driver/Src/stm32l4xx_hal_dac_ex.c ****   * @param  hdma pointer to a DMA_HandleTypeDef structure that contains
 620:Drivers/STM32L4xx_HAL_Driver/Src/stm32l4xx_hal_dac_ex.c ****   *                the configuration information for the specified DMA module.
 621:Drivers/STM32L4xx_HAL_Driver/Src/stm32l4xx_hal_dac_ex.c ****   * @retval None
 622:Drivers/STM32L4xx_HAL_Driver/Src/stm32l4xx_hal_dac_ex.c ****   */
 623:Drivers/STM32L4xx_HAL_Driver/Src/stm32l4xx_hal_dac_ex.c **** void DAC_DMAErrorCh2(DMA_HandleTypeDef *hdma)
 624:Drivers/STM32L4xx_HAL_Driver/Src/stm32l4xx_hal_dac_ex.c **** {
 832              		.loc 1 624 1 is_stmt 1 view -0
 833              		.cfi_startproc
 834              		@ args = 0, pretend = 0, frame = 0
 835              		@ frame_needed = 0, uses_anonymous_args = 0
 836              		.loc 1 624 1 is_stmt 0 view .LVU227
 837 0000 10B5     		push	{r4, lr}
 838              		.cfi_def_cfa_offset 8
 839              		.cfi_offset 4, -8
 840              		.cfi_offset 14, -4
 625:Drivers/STM32L4xx_HAL_Driver/Src/stm32l4xx_hal_dac_ex.c ****   DAC_HandleTypeDef *hdac = (DAC_HandleTypeDef *)((DMA_HandleTypeDef *)hdma)->Parent;
 841              		.loc 1 625 3 is_stmt 1 view .LVU228
 842              		.loc 1 625 22 is_stmt 0 view .LVU229
 843 0002 846A     		ldr	r4, [r0, #40]
 844              	.LVL66:
 626:Drivers/STM32L4xx_HAL_Driver/Src/stm32l4xx_hal_dac_ex.c **** 
 627:Drivers/STM32L4xx_HAL_Driver/Src/stm32l4xx_hal_dac_ex.c ****   /* Set DAC error code to DMA error */
 628:Drivers/STM32L4xx_HAL_Driver/Src/stm32l4xx_hal_dac_ex.c ****   hdac->ErrorCode |= HAL_DAC_ERROR_DMA;
 845              		.loc 1 628 3 is_stmt 1 view .LVU230
 846              		.loc 1 628 19 is_stmt 0 view .LVU231
 847 0004 2369     		ldr	r3, [r4, #16]
 848 0006 43F00403 		orr	r3, r3, #4
 849 000a 2361     		str	r3, [r4, #16]
 629:Drivers/STM32L4xx_HAL_Driver/Src/stm32l4xx_hal_dac_ex.c **** 
 630:Drivers/STM32L4xx_HAL_Driver/Src/stm32l4xx_hal_dac_ex.c **** #if (USE_HAL_DAC_REGISTER_CALLBACKS == 1)
ARM GAS  C:\Users\ldu08\AppData\Local\Temp\ccIB8tUx.s 			page 27


 631:Drivers/STM32L4xx_HAL_Driver/Src/stm32l4xx_hal_dac_ex.c ****   hdac->ErrorCallbackCh2(hdac);
 632:Drivers/STM32L4xx_HAL_Driver/Src/stm32l4xx_hal_dac_ex.c **** #else
 633:Drivers/STM32L4xx_HAL_Driver/Src/stm32l4xx_hal_dac_ex.c ****   HAL_DACEx_ErrorCallbackCh2(hdac);
 850              		.loc 1 633 3 is_stmt 1 view .LVU232
 851 000c 2046     		mov	r0, r4
 852              	.LVL67:
 853              		.loc 1 633 3 is_stmt 0 view .LVU233
 854 000e FFF7FEFF 		bl	HAL_DACEx_ErrorCallbackCh2
 855              	.LVL68:
 634:Drivers/STM32L4xx_HAL_Driver/Src/stm32l4xx_hal_dac_ex.c **** #endif /* USE_HAL_DAC_REGISTER_CALLBACKS */
 635:Drivers/STM32L4xx_HAL_Driver/Src/stm32l4xx_hal_dac_ex.c **** 
 636:Drivers/STM32L4xx_HAL_Driver/Src/stm32l4xx_hal_dac_ex.c ****   hdac->State = HAL_DAC_STATE_READY;
 856              		.loc 1 636 3 is_stmt 1 view .LVU234
 857              		.loc 1 636 15 is_stmt 0 view .LVU235
 858 0012 0123     		movs	r3, #1
 859 0014 2371     		strb	r3, [r4, #4]
 637:Drivers/STM32L4xx_HAL_Driver/Src/stm32l4xx_hal_dac_ex.c **** }
 860              		.loc 1 637 1 view .LVU236
 861 0016 10BD     		pop	{r4, pc}
 862              		.loc 1 637 1 view .LVU237
 863              		.cfi_endproc
 864              	.LFE334:
 866              		.text
 867              	.Letext0:
 868              		.file 2 "c:\\users\\ldu08\\appdata\\roaming\\code\\user\\globalstorage\\bmd.stm32-for-vscode\\@xpa
 869              		.file 3 "c:\\users\\ldu08\\appdata\\roaming\\code\\user\\globalstorage\\bmd.stm32-for-vscode\\@xpa
 870              		.file 4 "Drivers/CMSIS/Device/ST/STM32L4xx/Include/stm32l496xx.h"
 871              		.file 5 "Drivers/STM32L4xx_HAL_Driver/Inc/stm32l4xx_hal_def.h"
 872              		.file 6 "Drivers/STM32L4xx_HAL_Driver/Inc/stm32l4xx_hal_dma.h"
 873              		.file 7 "Drivers/STM32L4xx_HAL_Driver/Inc/stm32l4xx_hal_dac.h"
 874              		.file 8 "Drivers/STM32L4xx_HAL_Driver/Inc/stm32l4xx_hal.h"
ARM GAS  C:\Users\ldu08\AppData\Local\Temp\ccIB8tUx.s 			page 28

